LX51 LINKER/LOCATER V4.66.100.0                                                         03/21/2024  10:21:55  PAGE 1


LX51 LINKER/LOCATER V4.66.100.0, INVOKED BY:
D:\KEIL C51\C51\BIN\LX51.EXE .\Objects\STARTUP.obj, .\Objects\start.obj, .\Objects\MoveCar.obj, .\Objects\Track.obj, .\O
>> bjects\Follow.obj, .\Objects\IIC.obj, .\Objects\OLED.obj, .\Objects\SG90.obj, .\Objects\HCSR04.obj, .\Objects\Obstacl
>> eAvoidance.obj, .\Objects\LEDRGB.obj, .\Objects\buzzer.obj, .\Objects\SU03T.obj, .\Objects\UART.obj, .\Objects\DELAY.
>> obj TO .\Objects\RemoteControlCar PRINT (.\Listings\RemoteControlCar.map) REMOVEUNUSED


CPU MODE:     8051 MODE
MEMORY MODEL: LARGE WITH FLOATING POINT ARITHMETIC


INPUT MODULES INCLUDED:
  .\Objects\STARTUP.obj (?C_STARTUP)
         COMMENT TYPE 1: A51 / ASM51 Assembler
  .\Objects\start.obj (START)
         COMMENT TYPE 0: C51 V9.60.7.0
  .\Objects\MoveCar.obj (MOVECAR)
         COMMENT TYPE 0: C51 V9.60.7.0
  .\Objects\Track.obj (TRACK)
         COMMENT TYPE 0: C51 V9.60.7.0
  .\Objects\Follow.obj (FOLLOW)
         COMMENT TYPE 0: C51 V9.60.7.0
  .\Objects\IIC.obj (IIC)
         COMMENT TYPE 0: C51 V9.60.7.0
  .\Objects\OLED.obj (OLED)
         COMMENT TYPE 0: C51 V9.60.7.0
  .\Objects\SG90.obj (SG90)
         COMMENT TYPE 0: C51 V9.60.7.0
  .\Objects\HCSR04.obj (HCSR04)
         COMMENT TYPE 0: C51 V9.60.7.0
  .\Objects\ObstacleAvoidance.obj (OBSTACLEAVOIDANCE)
         COMMENT TYPE 0: C51 V9.60.7.0
  .\Objects\LEDRGB.obj (LEDRGB)
         COMMENT TYPE 0: C51 V9.60.7.0
  .\Objects\buzzer.obj (BUZZER)
         COMMENT TYPE 0: C51 V9.60.7.0
  .\Objects\SU03T.obj (SU03T)
         COMMENT TYPE 0: C51 V9.60.7.0
  .\Objects\UART.obj (UART)
         COMMENT TYPE 0: C51 V9.60.7.0
  .\Objects\DELAY.obj (DELAY)
         COMMENT TYPE 0: C51 V9.60.7.0
  D:\KEIL C51\C51\LIB\C51FPL.LIB (?C?FPMUL)
         COMMENT TYPE 1: A51 / ASM51 Assembler
  D:\KEIL C51\C51\LIB\C51FPL.LIB (?C?FPCMP)
         COMMENT TYPE 1: A51 / ASM51 Assembler
  D:\KEIL C51\C51\LIB\C51FPL.LIB (?C?FCAST)
         COMMENT TYPE 1: A51 / ASM51 Assembler
  D:\KEIL C51\C51\LIB\C51FPL.LIB (?C?CASTF)
         COMMENT TYPE 1: A51 / ASM51 Assembler
  D:\KEIL C51\C51\LIB\C51FPL.LIB (?C?FPGETOPN)
         COMMENT TYPE 1: A51 / ASM51 Assembler
  D:\KEIL C51\C51\LIB\C51L.LIB (?C?CLDPTR)
         COMMENT TYPE 1: A51 / ASM51 Assembler
  D:\KEIL C51\C51\LIB\C51L.LIB (?C?IILDX)
         COMMENT TYPE 1: A51 / ASM51 Assembler
  D:\KEIL C51\C51\LIB\C51L.LIB (?C?LNEG)
         COMMENT TYPE 1: A51 / ASM51 Assembler
  D:\KEIL C51\C51\LIB\C51L.LIB (?C?LSTXDATA)
         COMMENT TYPE 1: A51 / ASM51 Assembler
  D:\KEIL C51\C51\LIB\C51L.LIB (?C?LSTKXDATA)
         COMMENT TYPE 1: A51 / ASM51 Assembler


ACTIVE MEMORY CLASSES OF MODULE:  .\Objects\RemoteControlCar (?C_STARTUP)

LX51 LINKER/LOCATER V4.66.100.0                                                       03/21/2024  10:21:55  PAGE 2


BASE        START       END         USED      MEMORY CLASS
==========================================================
C:000000H   C:000000H   C:00FFFFH   000B9DH   CODE
I:000000H   I:000000H   I:0000FFH   000001H   IDATA
X:000000H   X:000000H   X:00FFFFH   000023H   XDATA
C:000000H   C:000000H   C:00FFFFH   000743H   CONST
I:000000H   I:000000H   I:00007FH   000008H   DATA


MEMORY MAP OF MODULE:  .\Objects\RemoteControlCar (?C_STARTUP)


START     STOP      LENGTH    ALIGN  RELOC    MEMORY CLASS   SEGMENT NAME
=========================================================================

* * * * * * * * * * *   D A T A   M E M O R Y   * * * * * * * * * * * * *
000000H   000007H   000008H   ---    AT..     DATA           "REG BANK 0"
000008H   000008H   000001H   BYTE   UNIT     IDATA          ?STACK

* * * * * * * * * * *   C O D E   M E M O R Y   * * * * * * * * * * * * *
000000H   000002H   000003H   ---    OFFS..   CODE           ?CO??C_STARTUP?0
000003H   00000AH   000008H   BYTE   UNIT     CODE           ?PR?TIMER2_INIT?HCSR04
00000BH   00000DH   000003H   BYTE   OFFS..   CODE           ?SG90?0000B
00000EH   000022H   000015H   BYTE   UNIT     CODE           ?PR?TIMER0_INIT?SG90
000023H   000025H   000003H   BYTE   OFFS..   CODE           ?UART?00023
000026H   0002DDH   0002B8H   BYTE   UNIT     CODE           ?C?LIB_CODE
0002DEH   0003FCH   00011FH   BYTE   UNIT     CODE           ?PR?_OLED_SHOW_CHAR?OLED
0003FDH   0004C4H   0000C8H   BYTE   UNIT     CODE           ?PR?OBSTACLE_AVOIDANCE_PATTERN?OBSTACLEAVOIDANCE
0004C5H   00055FH   00009BH   BYTE   UNIT     CODE           ?PR?SU03T?SU03T
000560H   0005E6H   000087H   BYTE   UNIT     CODE           ?PR?OLED_INIT?OLED
0005E7H   000650H   00006AH   BYTE   UNIT     CODE           ?PR?TIME0_HANDLE?SG90
000651H   0006B3H   000063H   BYTE   UNIT     CODE           ?PR?UART_HANDLE?UART
0006B4H   000712H   00005FH   BYTE   UNIT     CODE           ?PR?OLED_SHOW_FIXED_WORD?OLED
000713H   000766H   000054H   BYTE   UNIT     CODE           ?PR?LED_SHOW?LEDRGB
000767H   0007B8H   000052H   BYTE   UNIT     CODE           ?PR?MODE_SELECTION?SU03T
0007B9H   000803H   00004BH   BYTE   UNIT     CODE           ?PR?_OLED_SHOW_STR?OLED
000804H   000844H   000041H   BYTE   UNIT     CODE           ?PR?OLED_CLEAR?OLED
000845H   000881H   00003DH   BYTE   UNIT     CODE           ?PR?OLED_CLEAR_MODEL?OLED
000882H   0008B7H   000036H   BYTE   UNIT     CODE           ?PR?_OLED_WRITE_DATA?OLED
0008B8H   0008ECH   000035H   BYTE   UNIT     CODE           ?PR?HCSR04_DISTANCE?HCSR04
0008EDH   000919H   00002DH   BYTE   UNIT     CODE           ?PR?_OLED_WRITE_CMD?OLED
00091AH   000945H   00002CH   BYTE   UNIT     CODE           ?PR?TRACK_PATTERN?TRACK
000946H   000971H   00002CH   BYTE   UNIT     CODE           ?PR?FOLLOW_PATTERN?FOLLOW
000972H   000994H   000023H   BYTE   UNIT     CODE           ?PR?OLED_SHOW_INIT?OLED
000995H   0009B4H   000020H   BYTE   UNIT     CODE           ?PR?INDICATOR_LIGHT?START
0009B5H   0009D4H   000020H   BYTE   UNIT     CODE           ?PR?MAIN?START
0009D5H   0009F2H   00001EH   BYTE   UNIT     CODE           ?PR?UART_INIT?UART
0009F3H   000A0EH   00001CH   BYTE   UNIT     CODE           ?PR?BUZZER?BUZZER
000A0FH   000A27H   000019H   BYTE   UNIT     CODE           ?PR?_IIC_WRITE_DATA?IIC
000A28H   000A3AH   000013H   BYTE   UNIT     CODE           ?PR?_GET_DIS?HCSR04
000A3BH   000A4BH   000011H   BYTE   UNIT     CODE           ?PR?IIC_WAIT_ACK?IIC
000A4CH   000A5BH   000010H   BYTE   UNIT     CODE           ?PR?HSCR04_INIT?HCSR04
000A5CH   000A6AH   00000FH   BYTE   UNIT     CODE           ?PR?SG90_INIT?SG90
000A6BH   000A79H   00000FH   BYTE   UNIT     CODE           ?PR?SHAKE_HEAD_LEFT?SG90
000A7AH   000A88H   00000FH   BYTE   UNIT     CODE           ?PR?SHAKE_HEAD_MIDDLE?SG90
000A89H   000A96H   00000EH   BYTE   UNIT     CODE           ?PR?SHAKE_HEAD_RIGHT?SG90
000A97H   000AA4H   00000EH   BYTE   UNIT     CODE           ?PR?GET_TIME?HCSR04
000AA5H   000AB2H   00000EH   BYTE   UNIT     CODE           ?PR?DELAY300MS?DELAY
000AB3H   000AC0H   00000EH   BYTE   UNIT     CODE           ?PR?DELAY1000MS?DELAY
000AC1H   000ACCH   00000CH   BYTE   UNIT     CODE           ?C_C51STARTUP
000ACDH   000AD8H   00000CH   BYTE   UNIT     CODE           ?PR?SU03T_INIT?SU03T
000AD9H   000AE3H   00000BH   BYTE   UNIT     CODE           ?PR?IIC_START?IIC
000AE4H   000AEEH   00000BH   BYTE   UNIT     CODE           ?PR?IIC_STOP?IIC
000AEFH   000AF8H   00000AH   BYTE   UNIT     CODE           ?PR?TRIG_INIT?HCSR04
000AF9H   000B01H   000009H   BYTE   UNIT     CODE           ?PR?GO_FORWARD?MOVECAR
LX51 LINKER/LOCATER V4.66.100.0                                                       03/21/2024  10:21:55  PAGE 3


000B02H   000B0AH   000009H   BYTE   UNIT     CODE           ?PR?GO_BACK?MOVECAR
000B0BH   000B13H   000009H   BYTE   UNIT     CODE           ?PR?GO_LEFT?MOVECAR
000B14H   000B1CH   000009H   BYTE   UNIT     CODE           ?PR?GO_RIGHT?MOVECAR
000B1DH   000B25H   000009H   BYTE   UNIT     CODE           ?PR?STOP?MOVECAR
000B26H   000B2EH   000009H   BYTE   UNIT     CODE           ?PR?DELAY10MS?DELAY
000B2FH   000B37H   000009H   BYTE   UNIT     CODE           ?PR?DELAY40MS?DELAY
000B38H   000B40H   000009H   BYTE   UNIT     CODE           ?PR?DELAY100MS?DELAY
000B41H   000B48H   000008H   BYTE   UNIT     CODE           ?PR?START_TIME?HCSR04
000B49H   000B4FH   000007H   BYTE   UNIT     CODE           ?PR?IIC_INIT?IIC
000B50H   000B56H   000007H   BYTE   UNIT     CODE           ?PR?LED_INIT?LEDRGB
000B57H   000B5DH   000007H   BYTE   UNIT     CODE           ?PR?LED_R?LEDRGB
000B5EH   000B64H   000007H   BYTE   UNIT     CODE           ?PR?LED_G?LEDRGB
000B65H   000B6BH   000007H   BYTE   UNIT     CODE           ?PR?LED_B?LEDRGB
000B6CH   000B72H   000007H   BYTE   UNIT     CODE           ?PR?LED_RG?LEDRGB
000B73H   000B79H   000007H   BYTE   UNIT     CODE           ?PR?LED_RB?LEDRGB
000B7AH   000B80H   000007H   BYTE   UNIT     CODE           ?PR?LED_GB?LEDRGB
000B81H   000B87H   000007H   BYTE   UNIT     CODE           ?PR?LED_RGB?LEDRGB
000B88H   000B8EH   000007H   BYTE   UNIT     CODE           ?PR?LED_CLOSE?LEDRGB
000B8FH   000B94H   000006H   BYTE   UNIT     CODE           ?PR?OBSTACLE_PERIPHERAL?OBSTACLEAVOIDANCE
000B95H   000B99H   000005H   BYTE   UNIT     CODE           ?PR?DELAY10US?DELAY
000B9AH   000B9CH   000003H   BYTE   UNIT     CODE           ?PR?END_TIME?HCSR04
000B9DH   0012A7H   00070BH   BYTE   UNIT     CONST          ?CO?OLED
0012A8H   0012DFH   000038H   BYTE   UNIT     CONST          ?CO?SU03T

* * * * * * * * * * *  X D A T A   M E M O R Y  * * * * * * * * * * * * *
000000H   00000BH   00000CH   BYTE   UNIT     XDATA          ?XD?OBSTACLEAVOIDANCE
00000CH   000016H   00000BH   BYTE   UNIT     XDATA          _XDATA_GROUP_
000017H   00001CH   000006H   BYTE   UNIT     XDATA          ?XD?HCSR04
00001DH   000020H   000004H   BYTE   UNIT     XDATA          ?XD?SG90
000021H   000022H   000002H   BYTE   UNIT     XDATA          ?XD?SU03T

* * * * * * * * *   R E M O V E D     S E G M E N T S   * * * * * * * *
   *DEL*:           000005H   BYTE   UNIT     CODE           ?PR?LEFT_WHEEL_GO?MOVECAR
   *DEL*:           000005H   BYTE   UNIT     CODE           ?PR?RIGHT_WHEEL_GO?MOVECAR
   *DEL*:           000005H   BYTE   UNIT     CODE           ?PR?LEFT_WHEEL_STOP?MOVECAR
   *DEL*:           000005H   BYTE   UNIT     CODE           ?PR?RIGHT_WHEEL_STOP?MOVECAR
   *DEL*:           00000BH   BYTE   UNIT     CODE           ?PR?IIC_ACK?IIC
   *DEL*:           00000BH   BYTE   UNIT     CODE           ?PR?IIC_NACK?IIC
   *DEL*:           00003DH   BYTE   UNIT     CODE           ?PR?OLED_CLEAR_SPEED?OLED
   *DEL*:           000002H   BYTE   UNIT     XDATA          ?XD?OLED_CLEAR_SPEED?OLED
   *DEL*:           000008H   BYTE   UNIT     CODE           ?PR?_WRITE_BYTE?UART
   *DEL*:           000013H   BYTE   UNIT     CODE           ?PR?_WRITE_DATA?UART



OVERLAY MAP OF MODULE:   .\Objects\RemoteControlCar (?C_STARTUP)


FUNCTION/MODULE                               XDATA_GROUP
--> CALLED FUNCTION/MODULE                    START  STOP
=========================================================
?C_C51STARTUP                                 ----- -----
  +--> MAIN/START

MAIN/START                                    ----- -----
  +--> INDICATOR_LIGHT/START
  +--> LED_INIT/LEDRGB
  +--> OLED_SHOW_INIT/OLED
  +--> TIMER0_INIT/SG90
  +--> TIMER2_INIT/HCSR04
  +--> UART_INIT/UART
  +--> SU03T_INIT/SU03T
  +--> SG90_INIT/SG90
  +--> HSCR04_INIT/HCSR04
  +--> SU03T/SU03T
LX51 LINKER/LOCATER V4.66.100.0                                                       03/21/2024  10:21:55  PAGE 4



INDICATOR_LIGHT/START                         000CH 000CH
  +--> DELAY1000MS/DELAY

DELAY1000MS/DELAY                             ----- -----

LED_INIT/LEDRGB                               ----- -----

OLED_SHOW_INIT/OLED                           ----- -----
  +--> OLED_INIT/OLED
  +--> OLED_CLEAR/OLED
  +--> OLED_SHOW_FIXED_WORD/OLED
  +--> _OLED_SHOW_STR/OLED

OLED_INIT/OLED                                ----- -----
  +--> _OLED_WRITE_CMD/OLED

_OLED_WRITE_CMD/OLED                          0016H 0016H
  +--> IIC_INIT/IIC
  +--> IIC_START/IIC
  +--> _IIC_WRITE_DATA/IIC
  +--> IIC_WAIT_ACK/IIC
  +--> IIC_STOP/IIC

IIC_INIT/IIC                                  ----- -----

IIC_START/IIC                                 ----- -----

_IIC_WRITE_DATA/IIC                           ----- -----

IIC_WAIT_ACK/IIC                              ----- -----

IIC_STOP/IIC                                  ----- -----

OLED_CLEAR/OLED                               000CH 000DH
  +--> _OLED_WRITE_CMD/OLED
  +--> _OLED_WRITE_DATA/OLED

_OLED_WRITE_DATA/OLED                         0016H 0016H
  +--> IIC_INIT/IIC
  +--> IIC_START/IIC
  +--> _IIC_WRITE_DATA/IIC
  +--> IIC_WAIT_ACK/IIC
  +--> IIC_STOP/IIC

OLED_SHOW_FIXED_WORD/OLED                     000CH 000CH
  +--> _OLED_WRITE_CMD/OLED
  +--> _OLED_WRITE_DATA/OLED

_OLED_SHOW_STR/OLED                           000CH 0010H
  +--> _OLED_WRITE_CMD/OLED
  +--> _OLED_SHOW_CHAR/OLED

_OLED_SHOW_CHAR/OLED                          0011H 0015H
  +--> _OLED_WRITE_CMD/OLED
  +--> _OLED_WRITE_DATA/OLED

TIMER0_INIT/SG90                              ----- -----

TIMER2_INIT/HCSR04                            ----- -----

UART_INIT/UART                                ----- -----

SU03T_INIT/SU03T                              ----- -----

LX51 LINKER/LOCATER V4.66.100.0                                                       03/21/2024  10:21:55  PAGE 5


SG90_INIT/SG90                                ----- -----

HSCR04_INIT/HCSR04                            ----- -----

SU03T/SU03T                                   ----- -----
  +--> MODE_SELECTION/SU03T
  +--> OLED_CLEAR_MODEL/OLED
  +--> _OLED_SHOW_STR/OLED
  +--> TRACK_PATTERN/TRACK
  +--> FOLLOW_PATTERN/FOLLOW
  +--> OBSTACLE_AVOIDANCE_PATTERN/OBSTACLEAVOIDANCE

MODE_SELECTION/SU03T                          ----- -----

OLED_CLEAR_MODEL/OLED                         000CH 000DH
  +--> _OLED_WRITE_CMD/OLED
  +--> _OLED_WRITE_DATA/OLED

TRACK_PATTERN/TRACK                           ----- -----
  +--> GO_LEFT/MOVECAR
  +--> GO_RIGHT/MOVECAR
  +--> GO_FORWARD/MOVECAR
  +--> DELAY10MS/DELAY
  +--> STOP/MOVECAR

GO_LEFT/MOVECAR                               ----- -----

GO_RIGHT/MOVECAR                              ----- -----

GO_FORWARD/MOVECAR                            ----- -----

DELAY10MS/DELAY                               ----- -----

STOP/MOVECAR                                  ----- -----

FOLLOW_PATTERN/FOLLOW                         ----- -----
  +--> GO_FORWARD/MOVECAR
  +--> GO_LEFT/MOVECAR
  +--> GO_RIGHT/MOVECAR
  +--> DELAY10MS/DELAY
  +--> STOP/MOVECAR

OBSTACLE_AVOIDANCE_PATTERN/OBSTACLEAVOID+     ----- -----
... ANCE
  +--> OBSTACLE_PERIPHERAL/OBSTACLEAVOIDANCE
  +--> HCSR04_DISTANCE/HCSR04
  +--> GO_FORWARD/MOVECAR
  +--> GO_BACK/MOVECAR
  +--> STOP/MOVECAR
  +--> SHAKE_HEAD_LEFT/SG90
  +--> DELAY300MS/DELAY
  +--> SHAKE_HEAD_MIDDLE/SG90
  +--> SHAKE_HEAD_RIGHT/SG90
  +--> GO_LEFT/MOVECAR
  +--> GO_RIGHT/MOVECAR
  +--> DELAY10MS/DELAY

OBSTACLE_PERIPHERAL/OBSTACLEAVOIDANCE         ----- -----
  +--> LED_SHOW/LEDRGB
  +--> BUZZER/BUZZER

LED_SHOW/LEDRGB                               ----- -----
  +--> LED_R/LEDRGB
  +--> DELAY40MS/DELAY
  +--> LED_CLOSE/LEDRGB
LX51 LINKER/LOCATER V4.66.100.0                                                       03/21/2024  10:21:55  PAGE 6


  +--> LED_G/LEDRGB
  +--> LED_B/LEDRGB
  +--> LED_RG/LEDRGB
  +--> LED_RB/LEDRGB
  +--> LED_GB/LEDRGB
  +--> LED_RGB/LEDRGB

LED_R/LEDRGB                                  ----- -----

DELAY40MS/DELAY                               ----- -----

LED_CLOSE/LEDRGB                              ----- -----

LED_G/LEDRGB                                  ----- -----

LED_B/LEDRGB                                  ----- -----

LED_RG/LEDRGB                                 ----- -----

LED_RB/LEDRGB                                 ----- -----

LED_GB/LEDRGB                                 ----- -----

LED_RGB/LEDRGB                                ----- -----

BUZZER/BUZZER                                 000CH 000CH
  +--> DELAY100MS/DELAY

DELAY100MS/DELAY                              ----- -----

HCSR04_DISTANCE/HCSR04                        ----- -----
  +--> TRIG_INIT/HCSR04
  +--> START_TIME/HCSR04
  +--> END_TIME/HCSR04
  +--> GET_TIME/HCSR04
  +--> _GET_DIS/HCSR04

TRIG_INIT/HCSR04                              ----- -----
  +--> DELAY10US/DELAY

DELAY10US/DELAY                               ----- -----

START_TIME/HCSR04                             ----- -----

END_TIME/HCSR04                               ----- -----

GET_TIME/HCSR04                               ----- -----

_GET_DIS/HCSR04                               ----- -----

GO_BACK/MOVECAR                               ----- -----

SHAKE_HEAD_LEFT/SG90                          ----- -----

DELAY300MS/DELAY                              ----- -----

SHAKE_HEAD_MIDDLE/SG90                        ----- -----

SHAKE_HEAD_RIGHT/SG90                         ----- -----

*** NEW ROOT ********************************

TIME0_HANDLE/SG90                             ----- -----

*** NEW ROOT ********************************
LX51 LINKER/LOCATER V4.66.100.0                                                       03/21/2024  10:21:55  PAGE 7



UART_HANDLE/UART                              ----- -----
  +--> GO_FORWARD/MOVECAR
  +--> GO_BACK/MOVECAR
  +--> GO_LEFT/MOVECAR
  +--> GO_RIGHT/MOVECAR
  +--> DELAY10MS/DELAY



PUBLIC SYMBOLS OF MODULE:  .\Objects\RemoteControlCar (?C_STARTUP)


      VALUE       CLASS    TYPE      PUBLIC SYMBOL NAME
      =================================================
      010001E3H   CODE     ---       ?C?CASTF
      01000264H   CODE     ---       ?C?CLDPTR
      00000000H   NUMBER   ---       ?C?CODESEG
      010001AFH   CODE     ---       ?C?FCASTC
      010001AAH   CODE     ---       ?C?FCASTI
      010001A5H   CODE     ---       ?C?FCASTL
      0100012EH   CODE     ---       ?C?FPCMP
      0100012CH   CODE     ---       ?C?FPCMP3
      0100021AH   CODE     ---       ?C?FPGETOPN2
      01000026H   CODE     ---       ?C?FPMUL
      0100024FH   CODE     ---       ?C?FPNANRESULT
      01000259H   CODE     ---       ?C?FPOVERFLOW
      01000231H   CODE     ---       ?C?FPRESULT
      01000245H   CODE     ---       ?C?FPRESULT2
      01000256H   CODE     ---       ?C?FPUNDERFLOW
      0100027DH   CODE     ---       ?C?IILDX
      01000293H   CODE     ---       ?C?LNEG
      010002ADH   CODE     ---       ?C?LSTKXDATA
      010002A1H   CODE     ---       ?C?LSTXDATA
      00000000H   NUMBER   ---       ?C?XDATASEG
      010009B5H   CODE     ---       ?C_START
      01000000H   CODE     ---       ?C_STARTUP
      01000A28H   CODE     ---       _Get_Dis
      01000A0FH   CODE     ---       _IIC_Write_Data
      010002DEH   CODE     ---       _OLED_Show_Char
      010007B9H   CODE     ---       _OLED_Show_Str
      010008F1H   CODE     ---       _OLED_Write_Cmd
      0100088FH   CODE     ---       _OLED_Write_Data
*DEL*:00000000H   CODE     ---       _Write_Byte
*DEL*:00000000H   CODE     ---       _Write_Data
*SFR* 00000080H.0 DATA     BIT       A1_Right
*SFR* 00000090H.1 DATA     BIT       A25
*SFR* 00000090H.2 DATA     BIT       A26
*SFR* 00000090H.3 DATA     BIT       A27
*SFR* 00000080H.1 DATA     BIT       A2_Right
*SFR* 000000D0H.6 DATA     BIT       AC
*SFR* 000000E0H   DATA     BYTE      ACC
      0200001DH   XDATA    INT       angle
*SFR* 0000008EH   DATA     BYTE      AUXR
*SFR* 000000F0H   DATA     BYTE      B
*SFR* 00000080H.3 DATA     BIT       B1_Left
*SFR* 00000080H.2 DATA     BIT       B2_Left
*SFR* 00000090H.4 DATA     BIT       B3
      010009F3H   CODE     ---       Buzzer
*SFR* 000000C8H.1 DATA     BIT       C_T2
      0200001FH   XDATA    INT       cnt
*SFR* 00000090H.7 DATA     BIT       ColorB
*SFR* 00000090H.6 DATA     BIT       ColorG
*SFR* 00000090H.5 DATA     BIT       ColorR
*SFR* 000000C8H.0 DATA     BIT       CP_RL2
LX51 LINKER/LOCATER V4.66.100.0                                                       03/21/2024  10:21:55  PAGE 8


*SFR* 000000D0H.7 DATA     BIT       CY
*SFR* 000000B0H.7 DATA     BIT       D5
*SFR* 000000B0H.6 DATA     BIT       D6
      01000AB3H   CODE     ---       Delay1000ms
      01000B38H   CODE     ---       Delay100ms
      01000B26H   CODE     ---       Delay10ms
      01000B95H   CODE     ---       Delay10us
      01000AA5H   CODE     ---       Delay300ms
      01000B2FH   CODE     ---       Delay40ms
      02000019H   XDATA    FLOAT     dis
      02000008H   XDATA    FLOAT     dis_left
      02000000H   XDATA    FLOAT     dis_middle
      02000004H   XDATA    FLOAT     dis_right
*SFR* 00000083H   DATA     BYTE      DPH
*SFR* 00000082H   DATA     BYTE      DPL
*SFR* 000000A8H.7 DATA     BIT       EA
*SFR* 000000A0H.5 DATA     BIT       Echo
      01000B9AH   CODE     ---       End_Time
*SFR* 000000A8H.4 DATA     BIT       ES
*SFR* 000000A8H.1 DATA     BIT       ET0
*SFR* 000000A8H.3 DATA     BIT       ET1
*SFR* 000000A8H.5 DATA     BIT       ET2
*SFR* 000000A8H.0 DATA     BIT       EX0
*SFR* 000000A8H.2 DATA     BIT       EX1
*SFR* 000000C8H.3 DATA     BIT       EXEN2
*SFR* 000000C8H.6 DATA     BIT       EXF2
*SFR* 000000D0H.5 DATA     BIT       F0
      01000BB8H   CONST    ---       F8X16
      01001228H   CONST    ---       fixed_word_down
      010011A8H   CONST    ---       fixed_word_up
*SFR* 000000A0H.3 DATA     BIT       Follow_Left
      01000946H   CODE     ---       Follow_Pattern
*SFR* 000000B0H.4 DATA     BIT       Follow_Right
      01000A97H   CODE     ---       Get_Time
      01000B02H   CODE     ---       Go_Back
      01000AF9H   CODE     ---       Go_Forward
      01000B0BH   CODE     ---       Go_Left
      01000B14H   CODE     ---       Go_Right
      010008B8H   CODE     ---       HCSR04_Distance
      01000A4CH   CODE     ---       HSCR04_Init
*SFR* 00000090H.0 DATA     BIT       Hummer
*SFR* 000000A8H   DATA     BYTE      IE
*SFR* 00000088H.1 DATA     BIT       IE0
*SFR* 00000088H.3 DATA     BIT       IE1
*DEL*:00000000H   CODE     ---       IIC_Ack
      01000B49H   CODE     ---       IIC_Init
*DEL*:00000000H   CODE     ---       IIC_NAck
*SFR* 000000A0H.0 DATA     BIT       IIC_SCL
*SFR* 000000A0H.1 DATA     BIT       IIC_SDA
      01000AD9H   CODE     ---       IIC_Start
      01000AE4H   CODE     ---       IIC_Stop
      01000A3BH   CODE     ---       IIC_Wait_Ack
      01000995H   CODE     ---       Indicator_Light
*SFR* 000000B0H.2 DATA     BIT       INT0
*SFR* 000000B0H.3 DATA     BIT       INT1
*SFR* 000000B8H   DATA     BYTE      IP
*SFR* 00000088H.0 DATA     BIT       IT0
*SFR* 00000088H.2 DATA     BIT       IT1
      01000B65H   CODE     ---       LED_B
      01000B88H   CODE     ---       LED_Close
      01000B5EH   CODE     ---       LED_G
      01000B7AH   CODE     ---       LED_GB
      01000B50H   CODE     ---       LED_Init
      01000B57H   CODE     ---       LED_R
      01000B73H   CODE     ---       LED_RB
LX51 LINKER/LOCATER V4.66.100.0                                                       03/21/2024  10:21:55  PAGE 9


      01000B6CH   CODE     ---       LED_RG
      01000B81H   CODE     ---       LED_RGB
      01000713H   CODE     ---       LED_Show
*DEL*:00000000H   CODE     ---       Left_Wheel_Go
*DEL*:00000000H   CODE     ---       Left_Wheel_Stop
      010009B5H   CODE     ---       main
      02000022H   XDATA    BYTE      mode
      01000767H   CODE     ---       Mode_Selection
      010003FDH   CODE     ---       Obstacle_Avoidance_Pattern
      01000B8FH   CODE     ---       Obstacle_Peripheral
      01000804H   CODE     ---       OLED_Clear
      01000845H   CODE     ---       OLED_Clear_Model
*DEL*:00000000H   CODE     ---       OLED_Clear_Speed
      01000560H   CODE     ---       OLED_Init
      010006B4H   CODE     ---       OLED_Show_Fixed_Word
      01000972H   CODE     ---       OLED_Show_Init
*SFR* 000000D0H.2 DATA     BIT       OV
*SFR* 000000D0H.0 DATA     BIT       P
*SFR* 00000080H   DATA     BYTE      P0
*SFR* 00000090H   DATA     BYTE      P1
*SFR* 000000A0H   DATA     BYTE      P2
*SFR* 000000B0H   DATA     BYTE      P3
*SFR* 00000087H   DATA     BYTE      PCON
*SFR* 000000B8H.4 DATA     BIT       PS
*SFR* 000000D0H   DATA     BYTE      PSW
*SFR* 000000B8H.1 DATA     BIT       PT0
*SFR* 000000B8H.3 DATA     BIT       PT1
*SFR* 000000B8H.5 DATA     BIT       PT2
*SFR* 000000B8H.0 DATA     BIT       PX0
*SFR* 000000B8H.2 DATA     BIT       PX1
*SFR* 00000098H.2 DATA     BIT       RB8
*SFR* 000000CBH   DATA     BYTE      RCAP2H
*SFR* 000000CAH   DATA     BYTE      RCAP2L
*SFR* 000000C8H.5 DATA     BIT       RCLK
*SFR* 000000B0H.7 DATA     BIT       RD
      02000021H   XDATA    BYTE      remark
*SFR* 00000098H.4 DATA     BIT       REN
*SFR* 00000098H.0 DATA     BIT       RI
*DEL*:00000000H   CODE     ---       Right_Wheel_Go
*DEL*:00000000H   CODE     ---       Right_Wheel_Stop
*SFR* 000000D0H.3 DATA     BIT       RS0
*SFR* 000000D0H.4 DATA     BIT       RS1
*SFR* 000000B0H.0 DATA     BIT       RXD
*SFR* 00000099H   DATA     BYTE      SBUF
*SFR* 00000098H   DATA     BYTE      SCON
      01000A5CH   CODE     ---       SG90_Init
*SFR* 000000B0H.3 DATA     BIT       sg_90
      01000A6BH   CODE     ---       Shake_Head_Left
      01000A7AH   CODE     ---       Shake_Head_Middle
      01000A89H   CODE     ---       Shake_Head_Right
*SFR* 00000098H.7 DATA     BIT       SM0
*SFR* 00000098H.6 DATA     BIT       SM1
*SFR* 00000098H.5 DATA     BIT       SM2
*SFR* 00000081H   DATA     BYTE      SP
      01000B41H   CODE     ---       Start_Time
      01000B1DH   CODE     ---       Stop
      010004C5H   CODE     ---       SU03T
      01000ACDH   CODE     ---       SU03T_Init
*SFR* 000000B0H.4 DATA     BIT       T0
*SFR* 000000B0H.5 DATA     BIT       T1
*SFR* 00000090H.0 DATA     BIT       T2
*SFR* 000000C8H   DATA     BYTE      T2CON
*SFR* 00000090H.1 DATA     BIT       T2EX
*SFR* 00000098H.3 DATA     BIT       TB8
*SFR* 000000C8H.4 DATA     BIT       TCLK
LX51 LINKER/LOCATER V4.66.100.0                                                       03/21/2024  10:21:55  PAGE 10


*SFR* 00000088H   DATA     BYTE      TCON
*SFR* 00000088H.5 DATA     BIT       TF0
*SFR* 00000088H.7 DATA     BIT       TF1
*SFR* 000000C8H.7 DATA     BIT       TF2
*SFR* 0000008CH   DATA     BYTE      TH0
*SFR* 0000008DH   DATA     BYTE      TH1
*SFR* 000000CDH   DATA     BYTE      TH2
*SFR* 00000098H.1 DATA     BIT       TI
      02000017H   XDATA    WORD      time
      010005E7H   CODE     ---       Time0_Handle
      0100000EH   CODE     ---       Timer0_Init
      01000003H   CODE     ---       Timer2_Init
*SFR* 0000008AH   DATA     BYTE      TL0
*SFR* 0000008BH   DATA     BYTE      TL1
*SFR* 000000CCH   DATA     BYTE      TL2
*SFR* 00000089H   DATA     BYTE      TMOD
*SFR* 00000088H.4 DATA     BIT       TR0
*SFR* 00000088H.6 DATA     BIT       TR1
*SFR* 000000C8H.2 DATA     BIT       TR2
*SFR* 000000A0H.2 DATA     BIT       Track_Left
      0100091AH   CODE     ---       Track_Pattern
*SFR* 000000B0H.5 DATA     BIT       Track_Right
*SFR* 000000A0H.4 DATA     BIT       Trig
      01000AEFH   CODE     ---       Trig_Init
*SFR* 000000B0H.1 DATA     BIT       TXD
      01000651H   CODE     ---       UART_Handle
      010009D5H   CODE     ---       UART_Init
*SFR* 000000B0H.6 DATA     BIT       WR



SYMBOL TABLE OF MODULE:  .\Objects\RemoteControlCar (?C_STARTUP)

      VALUE       REP       CLASS    TYPE      SYMBOL NAME
      ====================================================
      ---         MODULE    ---      ---       ?C_STARTUP
      01000000H   PUBLIC    CODE     ---       ?C_STARTUP
      000000E0H   SYMBOL    DATA     ---       ACC
      000000F0H   SYMBOL    DATA     ---       B
      00000083H   SYMBOL    DATA     ---       DPH
      00000082H   SYMBOL    DATA     ---       DPL
      00000000H   SYMBOL    NUMBER   ---       IBPSTACK
      00000100H   SYMBOL    NUMBER   ---       IBPSTACKTOP
      00000080H   SYMBOL    NUMBER   ---       IDATALEN
      01000AC4H   SYMBOL    CODE     ---       IDATALOOP
      00000000H   SYMBOL    NUMBER   ---       PBPSTACK
      00000100H   SYMBOL    NUMBER   ---       PBPSTACKTOP
      00000000H   SYMBOL    NUMBER   ---       PDATALEN
      00000000H   SYMBOL    NUMBER   ---       PDATASTART
      00000000H   SYMBOL    NUMBER   ---       PPAGE
      00000000H   SYMBOL    NUMBER   ---       PPAGEENABLE
      000000A0H   SYMBOL    DATA     ---       PPAGE_SFR
      00000081H   SYMBOL    DATA     ---       SP
      01000AC1H   SYMBOL    CODE     ---       STARTUP1
      00000000H   SYMBOL    NUMBER   ---       XBPSTACK
      00000000H   SYMBOL    NUMBER   ---       XBPSTACKTOP
      00000000H   SYMBOL    NUMBER   ---       XDATALEN
      00000000H   SYMBOL    NUMBER   ---       XDATASTART
      01000000H   LINE      CODE     ---       #126
      01000AC1H   LINE      CODE     ---       #133
      01000AC3H   LINE      CODE     ---       #134
      01000AC4H   LINE      CODE     ---       #135
      01000AC5H   LINE      CODE     ---       #136
      01000AC7H   LINE      CODE     ---       #185
      01000ACAH   LINE      CODE     ---       #196
LX51 LINKER/LOCATER V4.66.100.0                                                       03/21/2024  10:21:55  PAGE 11



      ---         MODULE    ---      ---       START
      010009B5H   PUBLIC    CODE     ---       main
      01000995H   PUBLIC    CODE     ---       Indicator_Light
      00000080H   SFRSYM    DATA     BYTE      P0
      000000A0H.5 SFRSYM    DATA     BIT       Echo
      00000090H   SFRSYM    DATA     BYTE      P1
      000000A0H   SFRSYM    DATA     BYTE      P2
      000000B0H   SFRSYM    DATA     BYTE      P3
      000000B0H.4 SFRSYM    DATA     BIT       T0
      000000D0H.6 SFRSYM    DATA     BIT       AC
      000000B0H.5 SFRSYM    DATA     BIT       T1
      00000090H.0 SFRSYM    DATA     BIT       T2
      000000A8H.7 SFRSYM    DATA     BIT       EA
      000000A8H   SFRSYM    DATA     BYTE      IE
      000000A0H.1 SFRSYM    DATA     BIT       IIC_SDA
      000000C8H.6 SFRSYM    DATA     BIT       EXF2
      000000B0H.7 SFRSYM    DATA     BIT       RD
      000000A0H.4 SFRSYM    DATA     BIT       Trig
      000000A8H.4 SFRSYM    DATA     BIT       ES
      000000A0H.0 SFRSYM    DATA     BIT       IIC_SCL
      000000B8H   SFRSYM    DATA     BYTE      IP
      00000098H.0 SFRSYM    DATA     BIT       RI
      000000B0H.2 SFRSYM    DATA     BIT       INT0
      000000D0H.7 SFRSYM    DATA     BIT       CY
      00000098H.1 SFRSYM    DATA     BIT       TI
      000000B0H.3 SFRSYM    DATA     BIT       INT1
      000000CBH   SFRSYM    DATA     BYTE      RCAP2H
      000000B8H.4 SFRSYM    DATA     BIT       PS
      00000081H   SFRSYM    DATA     BYTE      SP
      000000B0H.3 SFRSYM    DATA     BIT       sg_90
      00000090H.1 SFRSYM    DATA     BIT       T2EX
      000000D0H.2 SFRSYM    DATA     BIT       OV
      000000CAH   SFRSYM    DATA     BYTE      RCAP2L
      00000090H.1 SFRSYM    DATA     BIT       A25
      00000090H.2 SFRSYM    DATA     BIT       A26
      000000C8H.1 SFRSYM    DATA     BIT       C_T2
      000000B0H.6 SFRSYM    DATA     BIT       WR
      00000090H.3 SFRSYM    DATA     BIT       A27
      000000C8H.5 SFRSYM    DATA     BIT       RCLK
      000000C8H.4 SFRSYM    DATA     BIT       TCLK
      00000099H   SFRSYM    DATA     BYTE      SBUF
      00000087H   SFRSYM    DATA     BYTE      PCON
      00000098H   SFRSYM    DATA     BYTE      SCON
      00000089H   SFRSYM    DATA     BYTE      TMOD
      00000088H   SFRSYM    DATA     BYTE      TCON
      00000088H.1 SFRSYM    DATA     BIT       IE0
      00000088H.3 SFRSYM    DATA     BIT       IE1
      0000008EH   SFRSYM    DATA     BYTE      AUXR
      000000F0H   SFRSYM    DATA     BYTE      B
      00000090H.7 SFRSYM    DATA     BIT       ColorB
      000000C8H.0 SFRSYM    DATA     BIT       CP_RL2
      000000E0H   SFRSYM    DATA     BYTE      ACC
      00000090H.6 SFRSYM    DATA     BIT       ColorG
      000000A8H.1 SFRSYM    DATA     BIT       ET0
      000000A8H.3 SFRSYM    DATA     BIT       ET1
      00000088H.5 SFRSYM    DATA     BIT       TF0
      000000A8H.5 SFRSYM    DATA     BIT       ET2
      00000088H.7 SFRSYM    DATA     BIT       TF1
      000000C8H.7 SFRSYM    DATA     BIT       TF2
      00000098H.2 SFRSYM    DATA     BIT       RB8
      0000008CH   SFRSYM    DATA     BYTE      TH0
      000000A8H.0 SFRSYM    DATA     BIT       EX0
      00000088H.0 SFRSYM    DATA     BIT       IT0
      0000008DH   SFRSYM    DATA     BYTE      TH1
LX51 LINKER/LOCATER V4.66.100.0                                                       03/21/2024  10:21:55  PAGE 12


      00000098H.3 SFRSYM    DATA     BIT       TB8
      000000A8H.2 SFRSYM    DATA     BIT       EX1
      00000088H.2 SFRSYM    DATA     BIT       IT1
      000000CDH   SFRSYM    DATA     BYTE      TH2
      000000D0H.0 SFRSYM    DATA     BIT       P
      00000098H.7 SFRSYM    DATA     BIT       SM0
      0000008AH   SFRSYM    DATA     BYTE      TL0
      00000098H.6 SFRSYM    DATA     BIT       SM1
      0000008BH   SFRSYM    DATA     BYTE      TL1
      00000098H.5 SFRSYM    DATA     BIT       SM2
      000000CCH   SFRSYM    DATA     BYTE      TL2
      00000080H.0 SFRSYM    DATA     BIT       A1_Right
      00000080H.1 SFRSYM    DATA     BIT       A2_Right
      00000090H.5 SFRSYM    DATA     BIT       ColorR
      000000B8H.1 SFRSYM    DATA     BIT       PT0
      000000B8H.3 SFRSYM    DATA     BIT       PT1
      000000D0H.3 SFRSYM    DATA     BIT       RS0
      000000B8H.5 SFRSYM    DATA     BIT       PT2
      00000088H.4 SFRSYM    DATA     BIT       TR0
      000000D0H.4 SFRSYM    DATA     BIT       RS1
      00000088H.6 SFRSYM    DATA     BIT       TR1
      000000B0H.4 SFRSYM    DATA     BIT       Follow_Right
      000000C8H.2 SFRSYM    DATA     BIT       TR2
      000000B8H.0 SFRSYM    DATA     BIT       PX0
      000000B0H.5 SFRSYM    DATA     BIT       Track_Right
      000000B8H.2 SFRSYM    DATA     BIT       PX1
      00000083H   SFRSYM    DATA     BYTE      DPH
      00000080H.3 SFRSYM    DATA     BIT       B1_Left
      00000082H   SFRSYM    DATA     BYTE      DPL
      00000080H.2 SFRSYM    DATA     BIT       B2_Left
      000000C8H.3 SFRSYM    DATA     BIT       EXEN2
      000000A0H.3 SFRSYM    DATA     BIT       Follow_Left
      000000A0H.2 SFRSYM    DATA     BIT       Track_Left
      00000098H.4 SFRSYM    DATA     BIT       REN
      000000C8H   SFRSYM    DATA     BYTE      T2CON
      000000B0H.0 SFRSYM    DATA     BIT       RXD
      000000B0H.1 SFRSYM    DATA     BIT       TXD
      00000090H.0 SFRSYM    DATA     BIT       Hummer
      00000090H.4 SFRSYM    DATA     BIT       B3
      000000D0H.5 SFRSYM    DATA     BIT       F0
      000000B0H.7 SFRSYM    DATA     BIT       D5
      000000B0H.6 SFRSYM    DATA     BIT       D6
      000000D0H   SFRSYM    DATA     BYTE      PSW

      01000995H   BLOCK     CODE     ---       LVL=0
      01000995H   BLOCK     CODE     NEAR LAB  LVL=1
      0200000CH   SYMBOL    XDATA    BYTE      i
      ---         BLOCKEND  ---      ---       LVL=1
      01000995H   LINE      CODE     ---       #22
      01000995H   LINE      CODE     ---       #23
      01000995H   LINE      CODE     ---       #25
      0100099AH   LINE      CODE     ---       #26
      0100099AH   LINE      CODE     ---       #27
      0100099CH   LINE      CODE     ---       #28
      0100099EH   LINE      CODE     ---       #29
      010009A1H   LINE      CODE     ---       #30
      010009A3H   LINE      CODE     ---       #31
      010009A5H   LINE      CODE     ---       #32
      010009A8H   LINE      CODE     ---       #33
      010009B4H   LINE      CODE     ---       #34
      ---         BLOCKEND  ---      ---       LVL=0

      010009B5H   BLOCK     CODE     ---       LVL=0
      010009B5H   LINE      CODE     ---       #43
      010009B5H   LINE      CODE     ---       #44
LX51 LINKER/LOCATER V4.66.100.0                                                       03/21/2024  10:21:55  PAGE 13


      010009B5H   LINE      CODE     ---       #45
      010009B8H   LINE      CODE     ---       #46
      010009BBH   LINE      CODE     ---       #47
      010009BEH   LINE      CODE     ---       #48
      010009C1H   LINE      CODE     ---       #49
      010009C4H   LINE      CODE     ---       #50
      010009C7H   LINE      CODE     ---       #51
      010009CAH   LINE      CODE     ---       #52
      010009CDH   LINE      CODE     ---       #53
      010009D0H   LINE      CODE     ---       #54
      010009D0H   LINE      CODE     ---       #55
      010009D0H   LINE      CODE     ---       #56
      010009D3H   LINE      CODE     ---       #57
      ---         BLOCKEND  ---      ---       LVL=0

      ---         MODULE    ---      ---       MOVECAR
      01000B1DH   PUBLIC    CODE     ---       Stop
      01000B14H   PUBLIC    CODE     ---       Go_Right
      01000B0BH   PUBLIC    CODE     ---       Go_Left
      01000B02H   PUBLIC    CODE     ---       Go_Back
      01000AF9H   PUBLIC    CODE     ---       Go_Forward
      00000080H   SFRSYM    DATA     BYTE      P0
      00000090H   SFRSYM    DATA     BYTE      P1
      000000A0H   SFRSYM    DATA     BYTE      P2
      000000B0H   SFRSYM    DATA     BYTE      P3
      000000B0H.4 SFRSYM    DATA     BIT       T0
      000000D0H.6 SFRSYM    DATA     BIT       AC
      000000B0H.5 SFRSYM    DATA     BIT       T1
      00000090H.0 SFRSYM    DATA     BIT       T2
      000000A8H.7 SFRSYM    DATA     BIT       EA
      000000A8H   SFRSYM    DATA     BYTE      IE
      000000C8H.6 SFRSYM    DATA     BIT       EXF2
      000000B0H.7 SFRSYM    DATA     BIT       RD
      000000A8H.4 SFRSYM    DATA     BIT       ES
      000000B8H   SFRSYM    DATA     BYTE      IP
      00000098H.0 SFRSYM    DATA     BIT       RI
      000000B0H.2 SFRSYM    DATA     BIT       INT0
      000000D0H.7 SFRSYM    DATA     BIT       CY
      00000098H.1 SFRSYM    DATA     BIT       TI
      000000B0H.3 SFRSYM    DATA     BIT       INT1
      000000CBH   SFRSYM    DATA     BYTE      RCAP2H
      000000B8H.4 SFRSYM    DATA     BIT       PS
      00000081H   SFRSYM    DATA     BYTE      SP
      00000090H.1 SFRSYM    DATA     BIT       T2EX
      000000D0H.2 SFRSYM    DATA     BIT       OV
      000000CAH   SFRSYM    DATA     BYTE      RCAP2L
      000000C8H.1 SFRSYM    DATA     BIT       C_T2
      000000B0H.6 SFRSYM    DATA     BIT       WR
      000000C8H.5 SFRSYM    DATA     BIT       RCLK
      000000C8H.4 SFRSYM    DATA     BIT       TCLK
      00000099H   SFRSYM    DATA     BYTE      SBUF
      00000087H   SFRSYM    DATA     BYTE      PCON
      00000098H   SFRSYM    DATA     BYTE      SCON
      00000089H   SFRSYM    DATA     BYTE      TMOD
      00000088H   SFRSYM    DATA     BYTE      TCON
      00000088H.1 SFRSYM    DATA     BIT       IE0
      00000088H.3 SFRSYM    DATA     BIT       IE1
      000000F0H   SFRSYM    DATA     BYTE      B
      000000C8H.0 SFRSYM    DATA     BIT       CP_RL2
      000000E0H   SFRSYM    DATA     BYTE      ACC
      000000A8H.1 SFRSYM    DATA     BIT       ET0
      000000A8H.3 SFRSYM    DATA     BIT       ET1
      00000088H.5 SFRSYM    DATA     BIT       TF0
      000000A8H.5 SFRSYM    DATA     BIT       ET2
      00000088H.7 SFRSYM    DATA     BIT       TF1
LX51 LINKER/LOCATER V4.66.100.0                                                       03/21/2024  10:21:55  PAGE 14


      000000C8H.7 SFRSYM    DATA     BIT       TF2
      00000098H.2 SFRSYM    DATA     BIT       RB8
      0000008CH   SFRSYM    DATA     BYTE      TH0
      000000A8H.0 SFRSYM    DATA     BIT       EX0
      00000088H.0 SFRSYM    DATA     BIT       IT0
      0000008DH   SFRSYM    DATA     BYTE      TH1
      00000098H.3 SFRSYM    DATA     BIT       TB8
      000000A8H.2 SFRSYM    DATA     BIT       EX1
      00000088H.2 SFRSYM    DATA     BIT       IT1
      000000CDH   SFRSYM    DATA     BYTE      TH2
      000000D0H.0 SFRSYM    DATA     BIT       P
      00000098H.7 SFRSYM    DATA     BIT       SM0
      0000008AH   SFRSYM    DATA     BYTE      TL0
      00000098H.6 SFRSYM    DATA     BIT       SM1
      0000008BH   SFRSYM    DATA     BYTE      TL1
      00000098H.5 SFRSYM    DATA     BIT       SM2
      000000CCH   SFRSYM    DATA     BYTE      TL2
      00000080H.0 SFRSYM    DATA     BIT       A1_Right
      00000080H.1 SFRSYM    DATA     BIT       A2_Right
      000000B8H.1 SFRSYM    DATA     BIT       PT0
      000000B8H.3 SFRSYM    DATA     BIT       PT1
      000000D0H.3 SFRSYM    DATA     BIT       RS0
      000000B8H.5 SFRSYM    DATA     BIT       PT2
      00000088H.4 SFRSYM    DATA     BIT       TR0
      000000D0H.4 SFRSYM    DATA     BIT       RS1
      00000088H.6 SFRSYM    DATA     BIT       TR1
      000000C8H.2 SFRSYM    DATA     BIT       TR2
      000000B8H.0 SFRSYM    DATA     BIT       PX0
      000000B8H.2 SFRSYM    DATA     BIT       PX1
      00000083H   SFRSYM    DATA     BYTE      DPH
      00000080H.3 SFRSYM    DATA     BIT       B1_Left
      00000082H   SFRSYM    DATA     BYTE      DPL
      00000080H.2 SFRSYM    DATA     BIT       B2_Left
      000000C8H.3 SFRSYM    DATA     BIT       EXEN2
      00000098H.4 SFRSYM    DATA     BIT       REN
      000000C8H   SFRSYM    DATA     BYTE      T2CON
      000000B0H.0 SFRSYM    DATA     BIT       RXD
      000000B0H.1 SFRSYM    DATA     BIT       TXD
      000000D0H.5 SFRSYM    DATA     BIT       F0
      000000D0H   SFRSYM    DATA     BYTE      PSW

      01000AF9H   BLOCK     CODE     ---       LVL=0
      01000AF9H   LINE      CODE     ---       #10
      01000AF9H   LINE      CODE     ---       #11
      01000AF9H   LINE      CODE     ---       #12
      01000AFBH   LINE      CODE     ---       #13
      01000AFDH   LINE      CODE     ---       #14
      01000AFFH   LINE      CODE     ---       #15
      01000B01H   LINE      CODE     ---       #16
      ---         BLOCKEND  ---      ---       LVL=0

      01000B02H   BLOCK     CODE     ---       LVL=0
      01000B02H   LINE      CODE     ---       #25
      01000B02H   LINE      CODE     ---       #26
      01000B02H   LINE      CODE     ---       #27
      01000B04H   LINE      CODE     ---       #28
      01000B06H   LINE      CODE     ---       #29
      01000B08H   LINE      CODE     ---       #30
      01000B0AH   LINE      CODE     ---       #31
      ---         BLOCKEND  ---      ---       LVL=0

      01000B0BH   BLOCK     CODE     ---       LVL=0
      01000B0BH   LINE      CODE     ---       #40
      01000B0BH   LINE      CODE     ---       #41
      01000B0BH   LINE      CODE     ---       #42
LX51 LINKER/LOCATER V4.66.100.0                                                       03/21/2024  10:21:55  PAGE 15


      01000B0DH   LINE      CODE     ---       #43
      01000B0FH   LINE      CODE     ---       #44
      01000B11H   LINE      CODE     ---       #45
      01000B13H   LINE      CODE     ---       #46
      ---         BLOCKEND  ---      ---       LVL=0

      01000B14H   BLOCK     CODE     ---       LVL=0
      01000B14H   LINE      CODE     ---       #55
      01000B14H   LINE      CODE     ---       #56
      01000B14H   LINE      CODE     ---       #57
      01000B16H   LINE      CODE     ---       #58
      01000B18H   LINE      CODE     ---       #59
      01000B1AH   LINE      CODE     ---       #60
      01000B1CH   LINE      CODE     ---       #61
      ---         BLOCKEND  ---      ---       LVL=0

      01000B1DH   BLOCK     CODE     ---       LVL=0
      01000B1DH   LINE      CODE     ---       #70
      01000B1DH   LINE      CODE     ---       #71
      01000B1DH   LINE      CODE     ---       #72
      01000B1FH   LINE      CODE     ---       #73
      01000B21H   LINE      CODE     ---       #74
      01000B23H   LINE      CODE     ---       #75
      01000B25H   LINE      CODE     ---       #76
      ---         BLOCKEND  ---      ---       LVL=0

      ---         MODULE    ---      ---       TRACK
      0100091AH   PUBLIC    CODE     ---       Track_Pattern
      00000080H   SFRSYM    DATA     BYTE      P0
      00000090H   SFRSYM    DATA     BYTE      P1
      000000A0H   SFRSYM    DATA     BYTE      P2
      000000B0H   SFRSYM    DATA     BYTE      P3
      000000B0H.4 SFRSYM    DATA     BIT       T0
      000000D0H.6 SFRSYM    DATA     BIT       AC
      000000B0H.5 SFRSYM    DATA     BIT       T1
      00000090H.0 SFRSYM    DATA     BIT       T2
      000000A8H.7 SFRSYM    DATA     BIT       EA
      000000A8H   SFRSYM    DATA     BYTE      IE
      000000C8H.6 SFRSYM    DATA     BIT       EXF2
      000000B0H.7 SFRSYM    DATA     BIT       RD
      000000A8H.4 SFRSYM    DATA     BIT       ES
      000000B8H   SFRSYM    DATA     BYTE      IP
      00000098H.0 SFRSYM    DATA     BIT       RI
      000000B0H.2 SFRSYM    DATA     BIT       INT0
      000000D0H.7 SFRSYM    DATA     BIT       CY
      00000098H.1 SFRSYM    DATA     BIT       TI
      000000B0H.3 SFRSYM    DATA     BIT       INT1
      000000CBH   SFRSYM    DATA     BYTE      RCAP2H
      000000B8H.4 SFRSYM    DATA     BIT       PS
      00000081H   SFRSYM    DATA     BYTE      SP
      00000090H.1 SFRSYM    DATA     BIT       T2EX
      000000D0H.2 SFRSYM    DATA     BIT       OV
      000000CAH   SFRSYM    DATA     BYTE      RCAP2L
      000000C8H.1 SFRSYM    DATA     BIT       C_T2
      000000B0H.6 SFRSYM    DATA     BIT       WR
      000000C8H.5 SFRSYM    DATA     BIT       RCLK
      000000C8H.4 SFRSYM    DATA     BIT       TCLK
      00000099H   SFRSYM    DATA     BYTE      SBUF
      00000087H   SFRSYM    DATA     BYTE      PCON
      00000098H   SFRSYM    DATA     BYTE      SCON
      00000089H   SFRSYM    DATA     BYTE      TMOD
      00000088H   SFRSYM    DATA     BYTE      TCON
      00000088H.1 SFRSYM    DATA     BIT       IE0
      00000088H.3 SFRSYM    DATA     BIT       IE1
      000000F0H   SFRSYM    DATA     BYTE      B
LX51 LINKER/LOCATER V4.66.100.0                                                       03/21/2024  10:21:55  PAGE 16


      000000C8H.0 SFRSYM    DATA     BIT       CP_RL2
      000000E0H   SFRSYM    DATA     BYTE      ACC
      000000A8H.1 SFRSYM    DATA     BIT       ET0
      000000A8H.3 SFRSYM    DATA     BIT       ET1
      00000088H.5 SFRSYM    DATA     BIT       TF0
      000000A8H.5 SFRSYM    DATA     BIT       ET2
      00000088H.7 SFRSYM    DATA     BIT       TF1
      000000C8H.7 SFRSYM    DATA     BIT       TF2
      00000098H.2 SFRSYM    DATA     BIT       RB8
      0000008CH   SFRSYM    DATA     BYTE      TH0
      000000A8H.0 SFRSYM    DATA     BIT       EX0
      00000088H.0 SFRSYM    DATA     BIT       IT0
      0000008DH   SFRSYM    DATA     BYTE      TH1
      00000098H.3 SFRSYM    DATA     BIT       TB8
      000000A8H.2 SFRSYM    DATA     BIT       EX1
      00000088H.2 SFRSYM    DATA     BIT       IT1
      000000CDH   SFRSYM    DATA     BYTE      TH2
      000000D0H.0 SFRSYM    DATA     BIT       P
      00000098H.7 SFRSYM    DATA     BIT       SM0
      0000008AH   SFRSYM    DATA     BYTE      TL0
      00000098H.6 SFRSYM    DATA     BIT       SM1
      0000008BH   SFRSYM    DATA     BYTE      TL1
      00000098H.5 SFRSYM    DATA     BIT       SM2
      000000CCH   SFRSYM    DATA     BYTE      TL2
      00000080H.0 SFRSYM    DATA     BIT       A1_Right
      00000080H.1 SFRSYM    DATA     BIT       A2_Right
      000000B8H.1 SFRSYM    DATA     BIT       PT0
      000000B8H.3 SFRSYM    DATA     BIT       PT1
      000000D0H.3 SFRSYM    DATA     BIT       RS0
      000000B8H.5 SFRSYM    DATA     BIT       PT2
      00000088H.4 SFRSYM    DATA     BIT       TR0
      000000D0H.4 SFRSYM    DATA     BIT       RS1
      00000088H.6 SFRSYM    DATA     BIT       TR1
      000000C8H.2 SFRSYM    DATA     BIT       TR2
      000000B8H.0 SFRSYM    DATA     BIT       PX0
      000000B0H.5 SFRSYM    DATA     BIT       Track_Right
      000000B8H.2 SFRSYM    DATA     BIT       PX1
      00000083H   SFRSYM    DATA     BYTE      DPH
      00000080H.3 SFRSYM    DATA     BIT       B1_Left
      00000082H   SFRSYM    DATA     BYTE      DPL
      00000080H.2 SFRSYM    DATA     BIT       B2_Left
      000000C8H.3 SFRSYM    DATA     BIT       EXEN2
      000000A0H.2 SFRSYM    DATA     BIT       Track_Left
      00000098H.4 SFRSYM    DATA     BIT       REN
      000000C8H   SFRSYM    DATA     BYTE      T2CON
      000000B0H.0 SFRSYM    DATA     BIT       RXD
      000000B0H.1 SFRSYM    DATA     BIT       TXD
      000000D0H.5 SFRSYM    DATA     BIT       F0
      000000D0H   SFRSYM    DATA     BYTE      PSW

      0100091AH   BLOCK     CODE     ---       LVL=0
      0100091AH   LINE      CODE     ---       #11
      0100091AH   LINE      CODE     ---       #12
      0100091AH   LINE      CODE     ---       #13
      01000920H   LINE      CODE     ---       #14
      01000920H   LINE      CODE     ---       #15
      01000923H   LINE      CODE     ---       #16
      01000923H   LINE      CODE     ---       #17
      01000925H   LINE      CODE     ---       #18
      0100092BH   LINE      CODE     ---       #19
      0100092BH   LINE      CODE     ---       #20
      0100092EH   LINE      CODE     ---       #21
      0100092EH   LINE      CODE     ---       #22
      01000930H   LINE      CODE     ---       #23
      01000936H   LINE      CODE     ---       #24
LX51 LINKER/LOCATER V4.66.100.0                                                       03/21/2024  10:21:55  PAGE 17


      01000936H   LINE      CODE     ---       #25
      01000939H   LINE      CODE     ---       #26
      0100093CH   LINE      CODE     ---       #27
      0100093CH   LINE      CODE     ---       #28
      01000942H   LINE      CODE     ---       #29
      01000942H   LINE      CODE     ---       #30
      01000945H   LINE      CODE     ---       #31
      01000945H   LINE      CODE     ---       #32
      ---         BLOCKEND  ---      ---       LVL=0

      ---         MODULE    ---      ---       FOLLOW
      01000946H   PUBLIC    CODE     ---       Follow_Pattern
      00000080H   SFRSYM    DATA     BYTE      P0
      00000090H   SFRSYM    DATA     BYTE      P1
      000000A0H   SFRSYM    DATA     BYTE      P2
      000000B0H   SFRSYM    DATA     BYTE      P3
      000000B0H.4 SFRSYM    DATA     BIT       T0
      000000D0H.6 SFRSYM    DATA     BIT       AC
      000000B0H.5 SFRSYM    DATA     BIT       T1
      00000090H.0 SFRSYM    DATA     BIT       T2
      000000A8H.7 SFRSYM    DATA     BIT       EA
      000000A8H   SFRSYM    DATA     BYTE      IE
      000000C8H.6 SFRSYM    DATA     BIT       EXF2
      000000B0H.7 SFRSYM    DATA     BIT       RD
      000000A8H.4 SFRSYM    DATA     BIT       ES
      000000B8H   SFRSYM    DATA     BYTE      IP
      00000098H.0 SFRSYM    DATA     BIT       RI
      000000B0H.2 SFRSYM    DATA     BIT       INT0
      000000D0H.7 SFRSYM    DATA     BIT       CY
      00000098H.1 SFRSYM    DATA     BIT       TI
      000000B0H.3 SFRSYM    DATA     BIT       INT1
      000000CBH   SFRSYM    DATA     BYTE      RCAP2H
      000000B8H.4 SFRSYM    DATA     BIT       PS
      00000081H   SFRSYM    DATA     BYTE      SP
      00000090H.1 SFRSYM    DATA     BIT       T2EX
      000000D0H.2 SFRSYM    DATA     BIT       OV
      000000CAH   SFRSYM    DATA     BYTE      RCAP2L
      000000C8H.1 SFRSYM    DATA     BIT       C_T2
      000000B0H.6 SFRSYM    DATA     BIT       WR
      000000C8H.5 SFRSYM    DATA     BIT       RCLK
      000000C8H.4 SFRSYM    DATA     BIT       TCLK
      00000099H   SFRSYM    DATA     BYTE      SBUF
      00000087H   SFRSYM    DATA     BYTE      PCON
      00000098H   SFRSYM    DATA     BYTE      SCON
      00000089H   SFRSYM    DATA     BYTE      TMOD
      00000088H   SFRSYM    DATA     BYTE      TCON
      00000088H.1 SFRSYM    DATA     BIT       IE0
      00000088H.3 SFRSYM    DATA     BIT       IE1
      000000F0H   SFRSYM    DATA     BYTE      B
      000000C8H.0 SFRSYM    DATA     BIT       CP_RL2
      000000E0H   SFRSYM    DATA     BYTE      ACC
      000000A8H.1 SFRSYM    DATA     BIT       ET0
      000000A8H.3 SFRSYM    DATA     BIT       ET1
      00000088H.5 SFRSYM    DATA     BIT       TF0
      000000A8H.5 SFRSYM    DATA     BIT       ET2
      00000088H.7 SFRSYM    DATA     BIT       TF1
      000000C8H.7 SFRSYM    DATA     BIT       TF2
      00000098H.2 SFRSYM    DATA     BIT       RB8
      0000008CH   SFRSYM    DATA     BYTE      TH0
      000000A8H.0 SFRSYM    DATA     BIT       EX0
      00000088H.0 SFRSYM    DATA     BIT       IT0
      0000008DH   SFRSYM    DATA     BYTE      TH1
      00000098H.3 SFRSYM    DATA     BIT       TB8
      000000A8H.2 SFRSYM    DATA     BIT       EX1
      00000088H.2 SFRSYM    DATA     BIT       IT1
LX51 LINKER/LOCATER V4.66.100.0                                                       03/21/2024  10:21:55  PAGE 18


      000000CDH   SFRSYM    DATA     BYTE      TH2
      000000D0H.0 SFRSYM    DATA     BIT       P
      00000098H.7 SFRSYM    DATA     BIT       SM0
      0000008AH   SFRSYM    DATA     BYTE      TL0
      00000098H.6 SFRSYM    DATA     BIT       SM1
      0000008BH   SFRSYM    DATA     BYTE      TL1
      00000098H.5 SFRSYM    DATA     BIT       SM2
      000000CCH   SFRSYM    DATA     BYTE      TL2
      00000080H.0 SFRSYM    DATA     BIT       A1_Right
      00000080H.1 SFRSYM    DATA     BIT       A2_Right
      000000B8H.1 SFRSYM    DATA     BIT       PT0
      000000B8H.3 SFRSYM    DATA     BIT       PT1
      000000D0H.3 SFRSYM    DATA     BIT       RS0
      000000B8H.5 SFRSYM    DATA     BIT       PT2
      00000088H.4 SFRSYM    DATA     BIT       TR0
      000000D0H.4 SFRSYM    DATA     BIT       RS1
      00000088H.6 SFRSYM    DATA     BIT       TR1
      000000B0H.4 SFRSYM    DATA     BIT       Follow_Right
      000000C8H.2 SFRSYM    DATA     BIT       TR2
      000000B8H.0 SFRSYM    DATA     BIT       PX0
      000000B8H.2 SFRSYM    DATA     BIT       PX1
      00000083H   SFRSYM    DATA     BYTE      DPH
      00000080H.3 SFRSYM    DATA     BIT       B1_Left
      00000082H   SFRSYM    DATA     BYTE      DPL
      00000080H.2 SFRSYM    DATA     BIT       B2_Left
      000000C8H.3 SFRSYM    DATA     BIT       EXEN2
      000000A0H.3 SFRSYM    DATA     BIT       Follow_Left
      00000098H.4 SFRSYM    DATA     BIT       REN
      000000C8H   SFRSYM    DATA     BYTE      T2CON
      000000B0H.0 SFRSYM    DATA     BIT       RXD
      000000B0H.1 SFRSYM    DATA     BIT       TXD
      000000D0H.5 SFRSYM    DATA     BIT       F0
      000000D0H   SFRSYM    DATA     BYTE      PSW

      01000946H   BLOCK     CODE     ---       LVL=0
      01000946H   LINE      CODE     ---       #11
      01000946H   LINE      CODE     ---       #12
      01000946H   LINE      CODE     ---       #13
      0100094CH   LINE      CODE     ---       #14
      0100094CH   LINE      CODE     ---       #15
      0100094FH   LINE      CODE     ---       #16
      0100094FH   LINE      CODE     ---       #17
      01000951H   LINE      CODE     ---       #18
      01000957H   LINE      CODE     ---       #19
      01000957H   LINE      CODE     ---       #20
      0100095AH   LINE      CODE     ---       #21
      0100095AH   LINE      CODE     ---       #22
      0100095CH   LINE      CODE     ---       #23
      01000962H   LINE      CODE     ---       #24
      01000962H   LINE      CODE     ---       #25
      01000965H   LINE      CODE     ---       #26
      01000968H   LINE      CODE     ---       #27
      01000968H   LINE      CODE     ---       #28
      0100096EH   LINE      CODE     ---       #29
      0100096EH   LINE      CODE     ---       #30
      01000971H   LINE      CODE     ---       #31
      01000971H   LINE      CODE     ---       #32
      ---         BLOCKEND  ---      ---       LVL=0

      ---         MODULE    ---      ---       IIC
      01000A0FH   PUBLIC    CODE     ---       _IIC_Write_Data
      01000A3BH   PUBLIC    CODE     ---       IIC_Wait_Ack
      01000AE4H   PUBLIC    CODE     ---       IIC_Stop
      01000AD9H   PUBLIC    CODE     ---       IIC_Start
      01000B49H   PUBLIC    CODE     ---       IIC_Init
LX51 LINKER/LOCATER V4.66.100.0                                                       03/21/2024  10:21:55  PAGE 19


      00000080H   SFRSYM    DATA     BYTE      P0
      00000090H   SFRSYM    DATA     BYTE      P1
      000000A0H   SFRSYM    DATA     BYTE      P2
      000000B0H   SFRSYM    DATA     BYTE      P3
      000000B0H.4 SFRSYM    DATA     BIT       T0
      000000D0H.6 SFRSYM    DATA     BIT       AC
      000000B0H.5 SFRSYM    DATA     BIT       T1
      00000090H.0 SFRSYM    DATA     BIT       T2
      000000A8H.7 SFRSYM    DATA     BIT       EA
      000000A8H   SFRSYM    DATA     BYTE      IE
      000000A0H.1 SFRSYM    DATA     BIT       IIC_SDA
      000000C8H.6 SFRSYM    DATA     BIT       EXF2
      000000B0H.7 SFRSYM    DATA     BIT       RD
      000000A8H.4 SFRSYM    DATA     BIT       ES
      000000A0H.0 SFRSYM    DATA     BIT       IIC_SCL
      000000B8H   SFRSYM    DATA     BYTE      IP
      00000098H.0 SFRSYM    DATA     BIT       RI
      000000B0H.2 SFRSYM    DATA     BIT       INT0
      000000D0H.7 SFRSYM    DATA     BIT       CY
      00000098H.1 SFRSYM    DATA     BIT       TI
      000000B0H.3 SFRSYM    DATA     BIT       INT1
      000000CBH   SFRSYM    DATA     BYTE      RCAP2H
      000000B8H.4 SFRSYM    DATA     BIT       PS
      00000081H   SFRSYM    DATA     BYTE      SP
      00000090H.1 SFRSYM    DATA     BIT       T2EX
      000000D0H.2 SFRSYM    DATA     BIT       OV
      000000CAH   SFRSYM    DATA     BYTE      RCAP2L
      000000C8H.1 SFRSYM    DATA     BIT       C_T2
      000000B0H.6 SFRSYM    DATA     BIT       WR
      000000C8H.5 SFRSYM    DATA     BIT       RCLK
      000000C8H.4 SFRSYM    DATA     BIT       TCLK
      00000099H   SFRSYM    DATA     BYTE      SBUF
      00000087H   SFRSYM    DATA     BYTE      PCON
      00000098H   SFRSYM    DATA     BYTE      SCON
      00000089H   SFRSYM    DATA     BYTE      TMOD
      00000088H   SFRSYM    DATA     BYTE      TCON
      00000088H.1 SFRSYM    DATA     BIT       IE0
      00000088H.3 SFRSYM    DATA     BIT       IE1
      000000F0H   SFRSYM    DATA     BYTE      B
      000000C8H.0 SFRSYM    DATA     BIT       CP_RL2
      000000E0H   SFRSYM    DATA     BYTE      ACC
      000000A8H.1 SFRSYM    DATA     BIT       ET0
      000000A8H.3 SFRSYM    DATA     BIT       ET1
      00000088H.5 SFRSYM    DATA     BIT       TF0
      000000A8H.5 SFRSYM    DATA     BIT       ET2
      00000088H.7 SFRSYM    DATA     BIT       TF1
      000000C8H.7 SFRSYM    DATA     BIT       TF2
      00000098H.2 SFRSYM    DATA     BIT       RB8
      0000008CH   SFRSYM    DATA     BYTE      TH0
      000000A8H.0 SFRSYM    DATA     BIT       EX0
      00000088H.0 SFRSYM    DATA     BIT       IT0
      0000008DH   SFRSYM    DATA     BYTE      TH1
      00000098H.3 SFRSYM    DATA     BIT       TB8
      000000A8H.2 SFRSYM    DATA     BIT       EX1
      00000088H.2 SFRSYM    DATA     BIT       IT1
      000000CDH   SFRSYM    DATA     BYTE      TH2
      000000D0H.0 SFRSYM    DATA     BIT       P
      00000098H.7 SFRSYM    DATA     BIT       SM0
      0000008AH   SFRSYM    DATA     BYTE      TL0
      00000098H.6 SFRSYM    DATA     BIT       SM1
      0000008BH   SFRSYM    DATA     BYTE      TL1
      00000098H.5 SFRSYM    DATA     BIT       SM2
      000000CCH   SFRSYM    DATA     BYTE      TL2
      000000B8H.1 SFRSYM    DATA     BIT       PT0
      000000B8H.3 SFRSYM    DATA     BIT       PT1
LX51 LINKER/LOCATER V4.66.100.0                                                       03/21/2024  10:21:55  PAGE 20


      000000D0H.3 SFRSYM    DATA     BIT       RS0
      000000B8H.5 SFRSYM    DATA     BIT       PT2
      00000088H.4 SFRSYM    DATA     BIT       TR0
      000000D0H.4 SFRSYM    DATA     BIT       RS1
      00000088H.6 SFRSYM    DATA     BIT       TR1
      000000C8H.2 SFRSYM    DATA     BIT       TR2
      000000B8H.0 SFRSYM    DATA     BIT       PX0
      000000B8H.2 SFRSYM    DATA     BIT       PX1
      00000083H   SFRSYM    DATA     BYTE      DPH
      00000082H   SFRSYM    DATA     BYTE      DPL
      000000C8H.3 SFRSYM    DATA     BIT       EXEN2
      00000098H.4 SFRSYM    DATA     BIT       REN
      000000C8H   SFRSYM    DATA     BYTE      T2CON
      000000B0H.0 SFRSYM    DATA     BIT       RXD
      000000B0H.1 SFRSYM    DATA     BIT       TXD
      000000D0H.5 SFRSYM    DATA     BIT       F0
      000000D0H   SFRSYM    DATA     BYTE      PSW

      01000B49H   BLOCK     CODE     ---       LVL=0
      01000B49H   LINE      CODE     ---       #10
      01000B49H   LINE      CODE     ---       #11
      01000B49H   LINE      CODE     ---       #12
      01000B4BH   LINE      CODE     ---       #13
      01000B4CH   LINE      CODE     ---       #14
      01000B4EH   LINE      CODE     ---       #15
      01000B4FH   LINE      CODE     ---       #16
      ---         BLOCKEND  ---      ---       LVL=0

      01000AD9H   BLOCK     CODE     ---       LVL=0
      01000AD9H   LINE      CODE     ---       #25
      01000AD9H   LINE      CODE     ---       #26
      01000AD9H   LINE      CODE     ---       #27
      01000ADBH   LINE      CODE     ---       #28
      01000ADDH   LINE      CODE     ---       #29
      01000ADEH   LINE      CODE     ---       #30
      01000AE0H   LINE      CODE     ---       #31
      01000AE1H   LINE      CODE     ---       #32
      01000AE3H   LINE      CODE     ---       #33
      ---         BLOCKEND  ---      ---       LVL=0

      01000AE4H   BLOCK     CODE     ---       LVL=0
      01000AE4H   LINE      CODE     ---       #42
      01000AE4H   LINE      CODE     ---       #43
      01000AE4H   LINE      CODE     ---       #44
      01000AE6H   LINE      CODE     ---       #45
      01000AE8H   LINE      CODE     ---       #46
      01000AE9H   LINE      CODE     ---       #47
      01000AEBH   LINE      CODE     ---       #48
      01000AECH   LINE      CODE     ---       #49
      01000AEEH   LINE      CODE     ---       #50
      ---         BLOCKEND  ---      ---       LVL=0

      01000A3BH   BLOCK     CODE     ---       LVL=0
      01000A3BH   BLOCK     CODE     NEAR LAB  LVL=1
      00000007H   SYMBOL    DATA     BYTE      flag
      ---         BLOCKEND  ---      ---       LVL=1
      01000A3BH   LINE      CODE     ---       #93
      01000A3BH   LINE      CODE     ---       #94
      01000A3BH   LINE      CODE     ---       #96
      01000A3DH   LINE      CODE     ---       #97
      01000A3FH   LINE      CODE     ---       #98
      01000A40H   LINE      CODE     ---       #99
      01000A42H   LINE      CODE     ---       #100
      01000A43H   LINE      CODE     ---       #101
      01000A48H   LINE      CODE     ---       #102
LX51 LINKER/LOCATER V4.66.100.0                                                       03/21/2024  10:21:55  PAGE 21


      01000A49H   LINE      CODE     ---       #103
      01000A4BH   LINE      CODE     ---       #104
      01000A4BH   LINE      CODE     ---       #105
      ---         BLOCKEND  ---      ---       LVL=0

      01000A0FH   BLOCK     CODE     ---       LVL=0
      00000007H   SYMBOL    DATA     BYTE      dat
      01000A0FH   BLOCK     CODE     NEAR LAB  LVL=1
      00000006H   SYMBOL    DATA     BYTE      i
      ---         BLOCKEND  ---      ---       LVL=1
      01000A0FH   LINE      CODE     ---       #114
      01000A0FH   LINE      CODE     ---       #115
      01000A0FH   LINE      CODE     ---       #117
      01000A11H   LINE      CODE     ---       #118
      01000A13H   LINE      CODE     ---       #119
      01000A13H   LINE      CODE     ---       #120
      01000A17H   LINE      CODE     ---       #121
      01000A18H   LINE      CODE     ---       #122
      01000A1AH   LINE      CODE     ---       #123
      01000A1BH   LINE      CODE     ---       #124
      01000A1DH   LINE      CODE     ---       #125
      01000A1EH   LINE      CODE     ---       #126
      01000A22H   LINE      CODE     ---       #127
      01000A27H   LINE      CODE     ---       #128
      ---         BLOCKEND  ---      ---       LVL=0

      ---         MODULE    ---      ---       OLED
      01001228H   PUBLIC    CONST    ---       fixed_word_down
      010011A8H   PUBLIC    CONST    ---       fixed_word_up
      01000BB8H   PUBLIC    CONST    ---       F8X16
      01000972H   PUBLIC    CODE     ---       OLED_Show_Init
      010007B9H   PUBLIC    CODE     ---       _OLED_Show_Str
      010002DEH   PUBLIC    CODE     ---       _OLED_Show_Char
      010006B4H   PUBLIC    CODE     ---       OLED_Show_Fixed_Word
      01000845H   PUBLIC    CODE     ---       OLED_Clear_Model
      01000804H   PUBLIC    CODE     ---       OLED_Clear
      01000560H   PUBLIC    CODE     ---       OLED_Init
      0100088FH   PUBLIC    CODE     ---       _OLED_Write_Data
      010008F1H   PUBLIC    CODE     ---       _OLED_Write_Cmd
      00000080H   SFRSYM    DATA     BYTE      P0
      00000090H   SFRSYM    DATA     BYTE      P1
      000000A0H   SFRSYM    DATA     BYTE      P2
      000000B0H   SFRSYM    DATA     BYTE      P3
      000000B0H.4 SFRSYM    DATA     BIT       T0
      000000D0H.6 SFRSYM    DATA     BIT       AC
      000000B0H.5 SFRSYM    DATA     BIT       T1
      00000090H.0 SFRSYM    DATA     BIT       T2
      000000A8H.7 SFRSYM    DATA     BIT       EA
      000000A8H   SFRSYM    DATA     BYTE      IE
      000000A0H.1 SFRSYM    DATA     BIT       IIC_SDA
      000000C8H.6 SFRSYM    DATA     BIT       EXF2
      000000B0H.7 SFRSYM    DATA     BIT       RD
      000000A8H.4 SFRSYM    DATA     BIT       ES
      000000A0H.0 SFRSYM    DATA     BIT       IIC_SCL
      000000B8H   SFRSYM    DATA     BYTE      IP
      00000098H.0 SFRSYM    DATA     BIT       RI
      000000B0H.2 SFRSYM    DATA     BIT       INT0
      000000D0H.7 SFRSYM    DATA     BIT       CY
      00000098H.1 SFRSYM    DATA     BIT       TI
      000000B0H.3 SFRSYM    DATA     BIT       INT1
      000000CBH   SFRSYM    DATA     BYTE      RCAP2H
      000000B8H.4 SFRSYM    DATA     BIT       PS
      00000081H   SFRSYM    DATA     BYTE      SP
      00000090H.1 SFRSYM    DATA     BIT       T2EX
      000000D0H.2 SFRSYM    DATA     BIT       OV
LX51 LINKER/LOCATER V4.66.100.0                                                       03/21/2024  10:21:55  PAGE 22


      000000CAH   SFRSYM    DATA     BYTE      RCAP2L
      000000C8H.1 SFRSYM    DATA     BIT       C_T2
      000000B0H.6 SFRSYM    DATA     BIT       WR
      000000C8H.5 SFRSYM    DATA     BIT       RCLK
      000000C8H.4 SFRSYM    DATA     BIT       TCLK
      00000099H   SFRSYM    DATA     BYTE      SBUF
      00000087H   SFRSYM    DATA     BYTE      PCON
      00000098H   SFRSYM    DATA     BYTE      SCON
      00000089H   SFRSYM    DATA     BYTE      TMOD
      00000088H   SFRSYM    DATA     BYTE      TCON
      00000088H.1 SFRSYM    DATA     BIT       IE0
      00000088H.3 SFRSYM    DATA     BIT       IE1
      000000F0H   SFRSYM    DATA     BYTE      B
      000000C8H.0 SFRSYM    DATA     BIT       CP_RL2
      000000E0H   SFRSYM    DATA     BYTE      ACC
      000000A8H.1 SFRSYM    DATA     BIT       ET0
      000000A8H.3 SFRSYM    DATA     BIT       ET1
      00000088H.5 SFRSYM    DATA     BIT       TF0
      000000A8H.5 SFRSYM    DATA     BIT       ET2
      00000088H.7 SFRSYM    DATA     BIT       TF1
      000000C8H.7 SFRSYM    DATA     BIT       TF2
      00000098H.2 SFRSYM    DATA     BIT       RB8
      0000008CH   SFRSYM    DATA     BYTE      TH0
      000000A8H.0 SFRSYM    DATA     BIT       EX0
      00000088H.0 SFRSYM    DATA     BIT       IT0
      0000008DH   SFRSYM    DATA     BYTE      TH1
      00000098H.3 SFRSYM    DATA     BIT       TB8
      000000A8H.2 SFRSYM    DATA     BIT       EX1
      00000088H.2 SFRSYM    DATA     BIT       IT1
      000000CDH   SFRSYM    DATA     BYTE      TH2
      000000D0H.0 SFRSYM    DATA     BIT       P
      00000098H.7 SFRSYM    DATA     BIT       SM0
      0000008AH   SFRSYM    DATA     BYTE      TL0
      00000098H.6 SFRSYM    DATA     BIT       SM1
      0000008BH   SFRSYM    DATA     BYTE      TL1
      00000098H.5 SFRSYM    DATA     BIT       SM2
      000000CCH   SFRSYM    DATA     BYTE      TL2
      000000B8H.1 SFRSYM    DATA     BIT       PT0
      000000B8H.3 SFRSYM    DATA     BIT       PT1
      000000D0H.3 SFRSYM    DATA     BIT       RS0
      000000B8H.5 SFRSYM    DATA     BIT       PT2
      00000088H.4 SFRSYM    DATA     BIT       TR0
      000000D0H.4 SFRSYM    DATA     BIT       RS1
      00000088H.6 SFRSYM    DATA     BIT       TR1
      000000C8H.2 SFRSYM    DATA     BIT       TR2
      000000B8H.0 SFRSYM    DATA     BIT       PX0
      000000B8H.2 SFRSYM    DATA     BIT       PX1
      00000083H   SFRSYM    DATA     BYTE      DPH
      00000082H   SFRSYM    DATA     BYTE      DPL
      000000C8H.3 SFRSYM    DATA     BIT       EXEN2
      00000098H.4 SFRSYM    DATA     BIT       REN
      000000C8H   SFRSYM    DATA     BYTE      T2CON
      000000B0H.0 SFRSYM    DATA     BIT       RXD
      000000B0H.1 SFRSYM    DATA     BIT       TXD
      000000D0H.5 SFRSYM    DATA     BIT       F0
      000000D0H   SFRSYM    DATA     BYTE      PSW

      010008EDH   BLOCK     CODE     VOID      LVL=0
      ---         BLOCKEND  ---      ---       LVL=0

      010008F1H   BLOCK     CODE     ---       LVL=0
      02000016H   SYMBOL    XDATA    BYTE      cmd
      010008F1H   LINE      CODE     ---       #11
      010008F6H   LINE      CODE     ---       #12
      010008F6H   LINE      CODE     ---       #13
LX51 LINKER/LOCATER V4.66.100.0                                                       03/21/2024  10:21:55  PAGE 23


      010008F9H   LINE      CODE     ---       #14
      010008FCH   LINE      CODE     ---       #15
      01000901H   LINE      CODE     ---       #16
      01000904H   LINE      CODE     ---       #17
      01000909H   LINE      CODE     ---       #18
      0100090CH   LINE      CODE     ---       #19
      01000914H   LINE      CODE     ---       #20
      01000917H   LINE      CODE     ---       #21
      ---         BLOCKEND  ---      ---       LVL=0

      01000882H   BLOCK     CODE     VOID      LVL=0
      ---         BLOCKEND  ---      ---       LVL=0

      0100088FH   BLOCK     CODE     ---       LVL=0
      02000016H   SYMBOL    XDATA    BYTE      datas
      0100088FH   LINE      CODE     ---       #31
      01000894H   LINE      CODE     ---       #32
      01000894H   LINE      CODE     ---       #33
      01000897H   LINE      CODE     ---       #34
      0100089AH   LINE      CODE     ---       #35
      0100089FH   LINE      CODE     ---       #36
      010008A2H   LINE      CODE     ---       #37
      010008A7H   LINE      CODE     ---       #38
      010008AAH   LINE      CODE     ---       #39
      010008B2H   LINE      CODE     ---       #40
      010008B5H   LINE      CODE     ---       #41
      ---         BLOCKEND  ---      ---       LVL=0

      01000560H   BLOCK     CODE     ---       LVL=0
      01000560H   LINE      CODE     ---       #52
      01000560H   LINE      CODE     ---       #53
      01000560H   LINE      CODE     ---       #54
      01000565H   LINE      CODE     ---       #55
      0100056AH   LINE      CODE     ---       #56
      0100056FH   LINE      CODE     ---       #57
      01000574H   LINE      CODE     ---       #58
      01000579H   LINE      CODE     ---       #59
      0100057EH   LINE      CODE     ---       #60
      01000583H   LINE      CODE     ---       #61
      01000588H   LINE      CODE     ---       #62
      0100058DH   LINE      CODE     ---       #63
      01000592H   LINE      CODE     ---       #64
      01000597H   LINE      CODE     ---       #65
      0100059CH   LINE      CODE     ---       #66
      010005A1H   LINE      CODE     ---       #67
      010005A6H   LINE      CODE     ---       #68
      010005ABH   LINE      CODE     ---       #69
      010005B0H   LINE      CODE     ---       #70
      010005B5H   LINE      CODE     ---       #71
      010005BAH   LINE      CODE     ---       #72
      010005BFH   LINE      CODE     ---       #73
      010005C4H   LINE      CODE     ---       #74
      010005C9H   LINE      CODE     ---       #75
      010005CEH   LINE      CODE     ---       #76
      010005D3H   LINE      CODE     ---       #77
      010005D8H   LINE      CODE     ---       #78
      010005DDH   LINE      CODE     ---       #79
      010005E2H   LINE      CODE     ---       #80
      ---         BLOCKEND  ---      ---       LVL=0

      01000804H   BLOCK     CODE     ---       LVL=0
      01000804H   BLOCK     CODE     NEAR LAB  LVL=1
      0200000CH   SYMBOL    XDATA    BYTE      i
      0200000DH   SYMBOL    XDATA    BYTE      j
      ---         BLOCKEND  ---      ---       LVL=1
LX51 LINKER/LOCATER V4.66.100.0                                                       03/21/2024  10:21:55  PAGE 24


      01000804H   LINE      CODE     ---       #90
      01000804H   LINE      CODE     ---       #91
      01000804H   LINE      CODE     ---       #92
      01000809H   LINE      CODE     ---       #93
      0100080BH   LINE      CODE     ---       #94
      01000819H   LINE      CODE     ---       #95
      01000819H   LINE      CODE     ---       #96
      0100081CH   LINE      CODE     ---       #97
      01000821H   LINE      CODE     ---       #98
      01000826H   LINE      CODE     ---       #99
      0100082BH   LINE      CODE     ---       #100
      0100082BH   LINE      CODE     ---       #101
      01000830H   LINE      CODE     ---       #102
      0100083CH   LINE      CODE     ---       #103
      01000844H   LINE      CODE     ---       #104
      ---         BLOCKEND  ---      ---       LVL=0

      01000845H   BLOCK     CODE     ---       LVL=0
      01000845H   BLOCK     CODE     NEAR LAB  LVL=1
      0200000CH   SYMBOL    XDATA    BYTE      i
      0200000DH   SYMBOL    XDATA    BYTE      j
      ---         BLOCKEND  ---      ---       LVL=1
      01000845H   LINE      CODE     ---       #137
      01000845H   LINE      CODE     ---       #138
      01000845H   LINE      CODE     ---       #141
      01000855H   LINE      CODE     ---       #142
      01000855H   LINE      CODE     ---       #143
      01000858H   LINE      CODE     ---       #144
      0100085DH   LINE      CODE     ---       #145
      01000862H   LINE      CODE     ---       #146
      01000868H   LINE      CODE     ---       #147
      01000868H   LINE      CODE     ---       #148
      0100086DH   LINE      CODE     ---       #149
      01000879H   LINE      CODE     ---       #150
      01000881H   LINE      CODE     ---       #151
      ---         BLOCKEND  ---      ---       LVL=0

      010006B4H   BLOCK     CODE     ---       LVL=0
      010006B4H   BLOCK     CODE     NEAR LAB  LVL=1
      0200000CH   SYMBOL    XDATA    BYTE      i
      ---         BLOCKEND  ---      ---       LVL=1
      010006B4H   LINE      CODE     ---       #160
      010006B4H   LINE      CODE     ---       #161
      010006B4H   LINE      CODE     ---       #163
      010006B9H   LINE      CODE     ---       #164
      010006BEH   LINE      CODE     ---       #165
      010006C3H   LINE      CODE     ---       #166
      010006D2H   LINE      CODE     ---       #167
      010006D2H   LINE      CODE     ---       #168
      010006DBH   LINE      CODE     ---       #169
      010006E3H   LINE      CODE     ---       #170
      010006E8H   LINE      CODE     ---       #171
      010006EDH   LINE      CODE     ---       #172
      010006F2H   LINE      CODE     ---       #173
      01000701H   LINE      CODE     ---       #174
      01000701H   LINE      CODE     ---       #175
      0100070AH   LINE      CODE     ---       #176
      01000712H   LINE      CODE     ---       #177
      ---         BLOCKEND  ---      ---       LVL=0

      010002DEH   BLOCK     CODE     ---       LVL=0
      02000011H   SYMBOL    XDATA    CHAR      row
      02000012H   SYMBOL    XDATA    CHAR      col
      02000013H   SYMBOL    XDATA    CHAR      oledChar
      010002EBH   BLOCK     CODE     NEAR LAB  LVL=1
LX51 LINKER/LOCATER V4.66.100.0                                                       03/21/2024  10:21:55  PAGE 25


      02000014H   SYMBOL    XDATA    WORD      i
      ---         BLOCKEND  ---      ---       LVL=1
      010002DEH   LINE      CODE     ---       #186
      010002EBH   LINE      CODE     ---       #188
      010002F5H   LINE      CODE     ---       #189
      010002FFH   LINE      CODE     ---       #190
      01000311H   LINE      CODE     ---       #191
      0100035FH   LINE      CODE     ---       #192
      01000362H   LINE      CODE     ---       #193
      01000372H   LINE      CODE     ---       #195
      0100037FH   LINE      CODE     ---       #196
      01000389H   LINE      CODE     ---       #197
      0100039BH   LINE      CODE     ---       #198
      010003E9H   LINE      CODE     ---       #199
      010003ECH   LINE      CODE     ---       #200
      010003FCH   LINE      CODE     ---       #201
      ---         BLOCKEND  ---      ---       LVL=0

      010007B9H   BLOCK     CODE     ---       LVL=0
      0200000CH   SYMBOL    XDATA    CHAR      row
      0200000DH   SYMBOL    XDATA    CHAR      col
      0200000EH   SYMBOL    XDATA    ---       str
      010007B9H   LINE      CODE     ---       #210
      010007CAH   LINE      CODE     ---       #211
      010007CFH   LINE      CODE     ---       #212
      010007D4H   LINE      CODE     ---       #213
      010007E5H   LINE      CODE     ---       #214
      010007F0H   LINE      CODE     ---       #215
      010007FAH   LINE      CODE     ---       #216
      01000801H   LINE      CODE     ---       #217
      01000803H   LINE      CODE     ---       #218
      ---         BLOCKEND  ---      ---       LVL=0

      01000972H   BLOCK     CODE     ---       LVL=0
      01000972H   LINE      CODE     ---       #227
      01000972H   LINE      CODE     ---       #228
      01000972H   LINE      CODE     ---       #229
      01000975H   LINE      CODE     ---       #230
      01000978H   LINE      CODE     ---       #231
      0100097BH   LINE      CODE     ---       #232
      01000988H   LINE      CODE     ---       #233
      ---         BLOCKEND  ---      ---       LVL=0

      ---         MODULE    ---      ---       SG90
      0200001FH   PUBLIC    XDATA    INT       cnt
      0200001DH   PUBLIC    XDATA    INT       angle
      010005E7H   PUBLIC    CODE     ---       Time0_Handle
      01000A7AH   PUBLIC    CODE     ---       Shake_Head_Middle
      01000A89H   PUBLIC    CODE     ---       Shake_Head_Right
      01000A6BH   PUBLIC    CODE     ---       Shake_Head_Left
      01000A5CH   PUBLIC    CODE     ---       SG90_Init
      0100000EH   PUBLIC    CODE     ---       Timer0_Init
      00000080H   SFRSYM    DATA     BYTE      P0
      00000090H   SFRSYM    DATA     BYTE      P1
      000000A0H   SFRSYM    DATA     BYTE      P2
      000000B0H   SFRSYM    DATA     BYTE      P3
      000000B0H.4 SFRSYM    DATA     BIT       T0
      000000D0H.6 SFRSYM    DATA     BIT       AC
      000000B0H.5 SFRSYM    DATA     BIT       T1
      00000090H.0 SFRSYM    DATA     BIT       T2
      000000A8H.7 SFRSYM    DATA     BIT       EA
      000000A8H   SFRSYM    DATA     BYTE      IE
      000000C8H.6 SFRSYM    DATA     BIT       EXF2
      000000B0H.7 SFRSYM    DATA     BIT       RD
      000000A8H.4 SFRSYM    DATA     BIT       ES
LX51 LINKER/LOCATER V4.66.100.0                                                       03/21/2024  10:21:55  PAGE 26


      000000B8H   SFRSYM    DATA     BYTE      IP
      00000098H.0 SFRSYM    DATA     BIT       RI
      000000B0H.2 SFRSYM    DATA     BIT       INT0
      000000D0H.7 SFRSYM    DATA     BIT       CY
      00000098H.1 SFRSYM    DATA     BIT       TI
      000000B0H.3 SFRSYM    DATA     BIT       INT1
      000000CBH   SFRSYM    DATA     BYTE      RCAP2H
      000000B8H.4 SFRSYM    DATA     BIT       PS
      00000081H   SFRSYM    DATA     BYTE      SP
      000000B0H.3 SFRSYM    DATA     BIT       sg_90
      00000090H.1 SFRSYM    DATA     BIT       T2EX
      000000D0H.2 SFRSYM    DATA     BIT       OV
      000000CAH   SFRSYM    DATA     BYTE      RCAP2L
      000000C8H.1 SFRSYM    DATA     BIT       C_T2
      000000B0H.6 SFRSYM    DATA     BIT       WR
      000000C8H.5 SFRSYM    DATA     BIT       RCLK
      000000C8H.4 SFRSYM    DATA     BIT       TCLK
      00000099H   SFRSYM    DATA     BYTE      SBUF
      00000087H   SFRSYM    DATA     BYTE      PCON
      00000098H   SFRSYM    DATA     BYTE      SCON
      00000089H   SFRSYM    DATA     BYTE      TMOD
      00000088H   SFRSYM    DATA     BYTE      TCON
      00000088H.1 SFRSYM    DATA     BIT       IE0
      00000088H.3 SFRSYM    DATA     BIT       IE1
      000000F0H   SFRSYM    DATA     BYTE      B
      000000C8H.0 SFRSYM    DATA     BIT       CP_RL2
      000000E0H   SFRSYM    DATA     BYTE      ACC
      000000A8H.1 SFRSYM    DATA     BIT       ET0
      000000A8H.3 SFRSYM    DATA     BIT       ET1
      00000088H.5 SFRSYM    DATA     BIT       TF0
      000000A8H.5 SFRSYM    DATA     BIT       ET2
      00000088H.7 SFRSYM    DATA     BIT       TF1
      000000C8H.7 SFRSYM    DATA     BIT       TF2
      00000098H.2 SFRSYM    DATA     BIT       RB8
      0000008CH   SFRSYM    DATA     BYTE      TH0
      000000A8H.0 SFRSYM    DATA     BIT       EX0
      00000088H.0 SFRSYM    DATA     BIT       IT0
      0000008DH   SFRSYM    DATA     BYTE      TH1
      00000098H.3 SFRSYM    DATA     BIT       TB8
      000000A8H.2 SFRSYM    DATA     BIT       EX1
      00000088H.2 SFRSYM    DATA     BIT       IT1
      000000CDH   SFRSYM    DATA     BYTE      TH2
      000000D0H.0 SFRSYM    DATA     BIT       P
      00000098H.7 SFRSYM    DATA     BIT       SM0
      0000008AH   SFRSYM    DATA     BYTE      TL0
      00000098H.6 SFRSYM    DATA     BIT       SM1
      0000008BH   SFRSYM    DATA     BYTE      TL1
      00000098H.5 SFRSYM    DATA     BIT       SM2
      000000CCH   SFRSYM    DATA     BYTE      TL2
      000000B8H.1 SFRSYM    DATA     BIT       PT0
      000000B8H.3 SFRSYM    DATA     BIT       PT1
      000000D0H.3 SFRSYM    DATA     BIT       RS0
      000000B8H.5 SFRSYM    DATA     BIT       PT2
      00000088H.4 SFRSYM    DATA     BIT       TR0
      000000D0H.4 SFRSYM    DATA     BIT       RS1
      00000088H.6 SFRSYM    DATA     BIT       TR1
      000000C8H.2 SFRSYM    DATA     BIT       TR2
      000000B8H.0 SFRSYM    DATA     BIT       PX0
      000000B8H.2 SFRSYM    DATA     BIT       PX1
      00000083H   SFRSYM    DATA     BYTE      DPH
      00000082H   SFRSYM    DATA     BYTE      DPL
      000000C8H.3 SFRSYM    DATA     BIT       EXEN2
      00000098H.4 SFRSYM    DATA     BIT       REN
      000000C8H   SFRSYM    DATA     BYTE      T2CON
      000000B0H.0 SFRSYM    DATA     BIT       RXD
LX51 LINKER/LOCATER V4.66.100.0                                                       03/21/2024  10:21:55  PAGE 27


      000000B0H.1 SFRSYM    DATA     BIT       TXD
      000000D0H.5 SFRSYM    DATA     BIT       F0
      000000D0H   SFRSYM    DATA     BYTE      PSW

      0100000EH   BLOCK     CODE     ---       LVL=0
      0100000EH   LINE      CODE     ---       #14
      0100000EH   LINE      CODE     ---       #15
      0100000EH   LINE      CODE     ---       #16
      01000011H   LINE      CODE     ---       #17
      01000014H   LINE      CODE     ---       #18
      01000017H   LINE      CODE     ---       #19
      0100001AH   LINE      CODE     ---       #20
      0100001CH   LINE      CODE     ---       #21
      0100001EH   LINE      CODE     ---       #22
      01000020H   LINE      CODE     ---       #23
      01000022H   LINE      CODE     ---       #24
      ---         BLOCKEND  ---      ---       LVL=0

      01000A5CH   BLOCK     CODE     ---       LVL=0
      01000A5CH   LINE      CODE     ---       #33
      01000A5CH   LINE      CODE     ---       #34
      01000A5CH   LINE      CODE     ---       #35
      01000A65H   LINE      CODE     ---       #36
      01000A6AH   LINE      CODE     ---       #37
      ---         BLOCKEND  ---      ---       LVL=0

      01000A6BH   BLOCK     CODE     ---       LVL=0
      01000A6BH   LINE      CODE     ---       #46
      01000A6BH   LINE      CODE     ---       #47
      01000A6BH   LINE      CODE     ---       #48
      01000A74H   LINE      CODE     ---       #49
      01000A79H   LINE      CODE     ---       #50
      ---         BLOCKEND  ---      ---       LVL=0

      01000A89H   BLOCK     CODE     ---       LVL=0
      01000A89H   LINE      CODE     ---       #59
      01000A89H   LINE      CODE     ---       #60
      01000A89H   LINE      CODE     ---       #61
      01000A91H   LINE      CODE     ---       #62
      01000A96H   LINE      CODE     ---       #63
      ---         BLOCKEND  ---      ---       LVL=0

      01000A7AH   BLOCK     CODE     ---       LVL=0
      01000A7AH   LINE      CODE     ---       #72
      01000A7AH   LINE      CODE     ---       #73
      01000A7AH   LINE      CODE     ---       #74
      01000A83H   LINE      CODE     ---       #75
      01000A88H   LINE      CODE     ---       #76
      ---         BLOCKEND  ---      ---       LVL=0

      010005E7H   BLOCK     CODE     ---       LVL=0
      010005E7H   LINE      CODE     ---       #85
      010005FCH   LINE      CODE     ---       #87
      0100060AH   LINE      CODE     ---       #88
      0100060DH   LINE      CODE     ---       #89
      01000610H   LINE      CODE     ---       #90
      0100062AH   LINE      CODE     ---       #91
      0100062AH   LINE      CODE     ---       #92
      0100062CH   LINE      CODE     ---       #93
      0100062EH   LINE      CODE     ---       #95
      0100062EH   LINE      CODE     ---       #96
      01000630H   LINE      CODE     ---       #97
      01000630H   LINE      CODE     ---       #98
      01000636H   LINE      CODE     ---       #99
      01000636H   LINE      CODE     ---       #100
LX51 LINKER/LOCATER V4.66.100.0                                                       03/21/2024  10:21:55  PAGE 28


      0100063CH   LINE      CODE     ---       #101
      0100063EH   LINE      CODE     ---       #102
      0100063EH   LINE      CODE     ---       #103
      ---         BLOCKEND  ---      ---       LVL=0

      ---         MODULE    ---      ---       HCSR04
      02000019H   PUBLIC    XDATA    FLOAT     dis
      02000017H   PUBLIC    XDATA    WORD      time
      010008B8H   PUBLIC    CODE     ---       HCSR04_Distance
      01000A28H   PUBLIC    CODE     ---       _Get_Dis
      01000A97H   PUBLIC    CODE     ---       Get_Time
      01000B9AH   PUBLIC    CODE     ---       End_Time
      01000B41H   PUBLIC    CODE     ---       Start_Time
      01000AEFH   PUBLIC    CODE     ---       Trig_Init
      01000003H   PUBLIC    CODE     ---       Timer2_Init
      01000A4CH   PUBLIC    CODE     ---       HSCR04_Init
      00000080H   SFRSYM    DATA     BYTE      P0
      000000A0H.5 SFRSYM    DATA     BIT       Echo
      00000090H   SFRSYM    DATA     BYTE      P1
      000000A0H   SFRSYM    DATA     BYTE      P2
      000000B0H   SFRSYM    DATA     BYTE      P3
      000000B0H.4 SFRSYM    DATA     BIT       T0
      000000D0H.6 SFRSYM    DATA     BIT       AC
      000000B0H.5 SFRSYM    DATA     BIT       T1
      00000090H.0 SFRSYM    DATA     BIT       T2
      000000A8H.7 SFRSYM    DATA     BIT       EA
      000000A8H   SFRSYM    DATA     BYTE      IE
      000000C8H.6 SFRSYM    DATA     BIT       EXF2
      000000B0H.7 SFRSYM    DATA     BIT       RD
      000000A0H.4 SFRSYM    DATA     BIT       Trig
      000000A8H.4 SFRSYM    DATA     BIT       ES
      000000B8H   SFRSYM    DATA     BYTE      IP
      00000098H.0 SFRSYM    DATA     BIT       RI
      000000B0H.2 SFRSYM    DATA     BIT       INT0
      000000D0H.7 SFRSYM    DATA     BIT       CY
      00000098H.1 SFRSYM    DATA     BIT       TI
      000000B0H.3 SFRSYM    DATA     BIT       INT1
      000000CBH   SFRSYM    DATA     BYTE      RCAP2H
      000000B8H.4 SFRSYM    DATA     BIT       PS
      00000081H   SFRSYM    DATA     BYTE      SP
      00000090H.1 SFRSYM    DATA     BIT       T2EX
      000000D0H.2 SFRSYM    DATA     BIT       OV
      000000CAH   SFRSYM    DATA     BYTE      RCAP2L
      000000C8H.1 SFRSYM    DATA     BIT       C_T2
      000000B0H.6 SFRSYM    DATA     BIT       WR
      000000C8H.5 SFRSYM    DATA     BIT       RCLK
      000000C8H.4 SFRSYM    DATA     BIT       TCLK
      00000099H   SFRSYM    DATA     BYTE      SBUF
      00000087H   SFRSYM    DATA     BYTE      PCON
      00000098H   SFRSYM    DATA     BYTE      SCON
      00000089H   SFRSYM    DATA     BYTE      TMOD
      00000088H   SFRSYM    DATA     BYTE      TCON
      00000088H.1 SFRSYM    DATA     BIT       IE0
      00000088H.3 SFRSYM    DATA     BIT       IE1
      000000F0H   SFRSYM    DATA     BYTE      B
      000000C8H.0 SFRSYM    DATA     BIT       CP_RL2
      000000E0H   SFRSYM    DATA     BYTE      ACC
      000000A8H.1 SFRSYM    DATA     BIT       ET0
      000000A8H.3 SFRSYM    DATA     BIT       ET1
      00000088H.5 SFRSYM    DATA     BIT       TF0
      000000A8H.5 SFRSYM    DATA     BIT       ET2
      00000088H.7 SFRSYM    DATA     BIT       TF1
      000000C8H.7 SFRSYM    DATA     BIT       TF2
      00000098H.2 SFRSYM    DATA     BIT       RB8
      0000008CH   SFRSYM    DATA     BYTE      TH0
LX51 LINKER/LOCATER V4.66.100.0                                                       03/21/2024  10:21:55  PAGE 29


      000000A8H.0 SFRSYM    DATA     BIT       EX0
      00000088H.0 SFRSYM    DATA     BIT       IT0
      0000008DH   SFRSYM    DATA     BYTE      TH1
      00000098H.3 SFRSYM    DATA     BIT       TB8
      000000A8H.2 SFRSYM    DATA     BIT       EX1
      00000088H.2 SFRSYM    DATA     BIT       IT1
      000000CDH   SFRSYM    DATA     BYTE      TH2
      000000D0H.0 SFRSYM    DATA     BIT       P
      00000098H.7 SFRSYM    DATA     BIT       SM0
      0000008AH   SFRSYM    DATA     BYTE      TL0
      00000098H.6 SFRSYM    DATA     BIT       SM1
      0000008BH   SFRSYM    DATA     BYTE      TL1
      00000098H.5 SFRSYM    DATA     BIT       SM2
      000000CCH   SFRSYM    DATA     BYTE      TL2
      000000B8H.1 SFRSYM    DATA     BIT       PT0
      000000B8H.3 SFRSYM    DATA     BIT       PT1
      000000D0H.3 SFRSYM    DATA     BIT       RS0
      000000B8H.5 SFRSYM    DATA     BIT       PT2
      00000088H.4 SFRSYM    DATA     BIT       TR0
      000000D0H.4 SFRSYM    DATA     BIT       RS1
      00000088H.6 SFRSYM    DATA     BIT       TR1
      000000C8H.2 SFRSYM    DATA     BIT       TR2
      000000B8H.0 SFRSYM    DATA     BIT       PX0
      000000B8H.2 SFRSYM    DATA     BIT       PX1
      00000083H   SFRSYM    DATA     BYTE      DPH
      00000082H   SFRSYM    DATA     BYTE      DPL
      000000C8H.3 SFRSYM    DATA     BIT       EXEN2
      00000098H.4 SFRSYM    DATA     BIT       REN
      000000C8H   SFRSYM    DATA     BYTE      T2CON
      000000B0H.0 SFRSYM    DATA     BIT       RXD
      000000B0H.1 SFRSYM    DATA     BIT       TXD
      000000D0H.5 SFRSYM    DATA     BIT       F0
      000000D0H   SFRSYM    DATA     BYTE      PSW

      01000A4CH   BLOCK     CODE     ---       LVL=0
      01000A4CH   LINE      CODE     ---       #14
      01000A4CH   LINE      CODE     ---       #15
      01000A4CH   LINE      CODE     ---       #16
      01000A53H   LINE      CODE     ---       #17
      01000A5BH   LINE      CODE     ---       #18
      ---         BLOCKEND  ---      ---       LVL=0

      01000003H   BLOCK     CODE     ---       LVL=0
      01000003H   LINE      CODE     ---       #27
      01000003H   LINE      CODE     ---       #28
      01000003H   LINE      CODE     ---       #29
      01000006H   LINE      CODE     ---       #30
      01000008H   LINE      CODE     ---       #31
      0100000AH   LINE      CODE     ---       #32
      ---         BLOCKEND  ---      ---       LVL=0

      01000AEFH   BLOCK     CODE     ---       LVL=0
      01000AEFH   LINE      CODE     ---       #41
      01000AEFH   LINE      CODE     ---       #42
      01000AEFH   LINE      CODE     ---       #43
      01000AF1H   LINE      CODE     ---       #44
      01000AF3H   LINE      CODE     ---       #45
      01000AF6H   LINE      CODE     ---       #46
      01000AF8H   LINE      CODE     ---       #47
      ---         BLOCKEND  ---      ---       LVL=0

      01000B41H   BLOCK     CODE     ---       LVL=0
      01000B41H   LINE      CODE     ---       #56
      01000B41H   LINE      CODE     ---       #57
      01000B41H   LINE      CODE     ---       #58
LX51 LINKER/LOCATER V4.66.100.0                                                       03/21/2024  10:21:55  PAGE 30


      01000B44H   LINE      CODE     ---       #59
      01000B46H   LINE      CODE     ---       #60
      01000B48H   LINE      CODE     ---       #61
      ---         BLOCKEND  ---      ---       LVL=0

      01000B9AH   BLOCK     CODE     ---       LVL=0
      01000B9AH   LINE      CODE     ---       #70
      01000B9AH   LINE      CODE     ---       #71
      01000B9AH   LINE      CODE     ---       #72
      01000B9CH   LINE      CODE     ---       #73
      ---         BLOCKEND  ---      ---       LVL=0

      01000A97H   BLOCK     CODE     ---       LVL=0
      01000A97H   BLOCK     CODE     NEAR LAB  LVL=1
      00000006H   SYMBOL    DATA     WORD      time
      ---         BLOCKEND  ---      ---       LVL=1
      01000A97H   LINE      CODE     ---       #82
      01000A97H   LINE      CODE     ---       #83
      01000A97H   LINE      CODE     ---       #84
      01000A97H   LINE      CODE     ---       #85
      01000A9FH   LINE      CODE     ---       #86
      ---         BLOCKEND  ---      ---       LVL=0

      01000A28H   BLOCK     CODE     ---       LVL=0
      00000006H   SYMBOL    DATA     WORD      time
      01000A28H   BLOCK     CODE     NEAR LAB  LVL=1
      00000004H   SYMBOL    DATA     FLOAT     dis
      ---         BLOCKEND  ---      ---       LVL=1
      01000A28H   LINE      CODE     ---       #96
      01000A28H   LINE      CODE     ---       #97
      01000A28H   LINE      CODE     ---       #99
      ---         BLOCKEND  ---      ---       LVL=0

      010008B8H   BLOCK     CODE     ---       LVL=0
      010008B8H   LINE      CODE     ---       #110
      010008B8H   LINE      CODE     ---       #111
      010008B8H   LINE      CODE     ---       #112
      010008BBH   LINE      CODE     ---       #113
      010008BEH   LINE      CODE     ---       #114
      010008C1H   LINE      CODE     ---       #115
      010008C4H   LINE      CODE     ---       #116
      010008C7H   LINE      CODE     ---       #117
      010008D5H   LINE      CODE     ---       #118
      010008DEH   LINE      CODE     ---       #119
      010008ECH   LINE      CODE     ---       #120
      ---         BLOCKEND  ---      ---       LVL=0

      ---         MODULE    ---      ---       OBSTACLEAVOIDANCE
      02000008H   PUBLIC    XDATA    FLOAT     dis_left
      02000004H   PUBLIC    XDATA    FLOAT     dis_right
      02000000H   PUBLIC    XDATA    FLOAT     dis_middle
      010003FDH   PUBLIC    CODE     ---       Obstacle_Avoidance_Pattern
      01000B8FH   PUBLIC    CODE     ---       Obstacle_Peripheral
      00000080H   SFRSYM    DATA     BYTE      P0
      000000A0H.5 SFRSYM    DATA     BIT       Echo
      00000090H   SFRSYM    DATA     BYTE      P1
      000000A0H   SFRSYM    DATA     BYTE      P2
      000000B0H   SFRSYM    DATA     BYTE      P3
      000000B0H.4 SFRSYM    DATA     BIT       T0
      000000D0H.6 SFRSYM    DATA     BIT       AC
      000000B0H.5 SFRSYM    DATA     BIT       T1
      00000090H.0 SFRSYM    DATA     BIT       T2
      000000A8H.7 SFRSYM    DATA     BIT       EA
      000000A8H   SFRSYM    DATA     BYTE      IE
      000000C8H.6 SFRSYM    DATA     BIT       EXF2
LX51 LINKER/LOCATER V4.66.100.0                                                       03/21/2024  10:21:55  PAGE 31


      000000B0H.7 SFRSYM    DATA     BIT       RD
      000000A0H.4 SFRSYM    DATA     BIT       Trig
      000000A8H.4 SFRSYM    DATA     BIT       ES
      000000B8H   SFRSYM    DATA     BYTE      IP
      00000098H.0 SFRSYM    DATA     BIT       RI
      000000B0H.2 SFRSYM    DATA     BIT       INT0
      000000D0H.7 SFRSYM    DATA     BIT       CY
      00000098H.1 SFRSYM    DATA     BIT       TI
      000000B0H.3 SFRSYM    DATA     BIT       INT1
      000000CBH   SFRSYM    DATA     BYTE      RCAP2H
      000000B8H.4 SFRSYM    DATA     BIT       PS
      00000081H   SFRSYM    DATA     BYTE      SP
      000000B0H.3 SFRSYM    DATA     BIT       sg_90
      00000090H.1 SFRSYM    DATA     BIT       T2EX
      000000D0H.2 SFRSYM    DATA     BIT       OV
      000000CAH   SFRSYM    DATA     BYTE      RCAP2L
      000000C8H.1 SFRSYM    DATA     BIT       C_T2
      000000B0H.6 SFRSYM    DATA     BIT       WR
      000000C8H.5 SFRSYM    DATA     BIT       RCLK
      000000C8H.4 SFRSYM    DATA     BIT       TCLK
      00000099H   SFRSYM    DATA     BYTE      SBUF
      00000087H   SFRSYM    DATA     BYTE      PCON
      00000098H   SFRSYM    DATA     BYTE      SCON
      00000089H   SFRSYM    DATA     BYTE      TMOD
      00000088H   SFRSYM    DATA     BYTE      TCON
      00000088H.1 SFRSYM    DATA     BIT       IE0
      00000088H.3 SFRSYM    DATA     BIT       IE1
      000000F0H   SFRSYM    DATA     BYTE      B
      00000090H.7 SFRSYM    DATA     BIT       ColorB
      000000C8H.0 SFRSYM    DATA     BIT       CP_RL2
      000000E0H   SFRSYM    DATA     BYTE      ACC
      00000090H.6 SFRSYM    DATA     BIT       ColorG
      000000A8H.1 SFRSYM    DATA     BIT       ET0
      000000A8H.3 SFRSYM    DATA     BIT       ET1
      00000088H.5 SFRSYM    DATA     BIT       TF0
      000000A8H.5 SFRSYM    DATA     BIT       ET2
      00000088H.7 SFRSYM    DATA     BIT       TF1
      000000C8H.7 SFRSYM    DATA     BIT       TF2
      00000098H.2 SFRSYM    DATA     BIT       RB8
      0000008CH   SFRSYM    DATA     BYTE      TH0
      000000A8H.0 SFRSYM    DATA     BIT       EX0
      00000088H.0 SFRSYM    DATA     BIT       IT0
      0000008DH   SFRSYM    DATA     BYTE      TH1
      00000098H.3 SFRSYM    DATA     BIT       TB8
      000000A8H.2 SFRSYM    DATA     BIT       EX1
      00000088H.2 SFRSYM    DATA     BIT       IT1
      000000CDH   SFRSYM    DATA     BYTE      TH2
      000000D0H.0 SFRSYM    DATA     BIT       P
      00000098H.7 SFRSYM    DATA     BIT       SM0
      0000008AH   SFRSYM    DATA     BYTE      TL0
      00000098H.6 SFRSYM    DATA     BIT       SM1
      0000008BH   SFRSYM    DATA     BYTE      TL1
      00000098H.5 SFRSYM    DATA     BIT       SM2
      000000CCH   SFRSYM    DATA     BYTE      TL2
      00000080H.0 SFRSYM    DATA     BIT       A1_Right
      00000090H.5 SFRSYM    DATA     BIT       ColorR
      00000080H.1 SFRSYM    DATA     BIT       A2_Right
      000000B8H.1 SFRSYM    DATA     BIT       PT0
      000000B8H.3 SFRSYM    DATA     BIT       PT1
      000000D0H.3 SFRSYM    DATA     BIT       RS0
      000000B8H.5 SFRSYM    DATA     BIT       PT2
      00000088H.4 SFRSYM    DATA     BIT       TR0
      000000D0H.4 SFRSYM    DATA     BIT       RS1
      00000088H.6 SFRSYM    DATA     BIT       TR1
      000000C8H.2 SFRSYM    DATA     BIT       TR2
LX51 LINKER/LOCATER V4.66.100.0                                                       03/21/2024  10:21:55  PAGE 32


      000000B8H.0 SFRSYM    DATA     BIT       PX0
      000000B8H.2 SFRSYM    DATA     BIT       PX1
      00000083H   SFRSYM    DATA     BYTE      DPH
      00000080H.3 SFRSYM    DATA     BIT       B1_Left
      00000082H   SFRSYM    DATA     BYTE      DPL
      00000080H.2 SFRSYM    DATA     BIT       B2_Left
      000000C8H.3 SFRSYM    DATA     BIT       EXEN2
      00000098H.4 SFRSYM    DATA     BIT       REN
      000000C8H   SFRSYM    DATA     BYTE      T2CON
      000000B0H.0 SFRSYM    DATA     BIT       RXD
      000000B0H.1 SFRSYM    DATA     BIT       TXD
      00000090H.0 SFRSYM    DATA     BIT       Hummer
      000000D0H.5 SFRSYM    DATA     BIT       F0
      000000D0H   SFRSYM    DATA     BYTE      PSW

      01000B8FH   BLOCK     CODE     ---       LVL=0
      01000B8FH   LINE      CODE     ---       #15
      01000B8FH   LINE      CODE     ---       #16
      01000B8FH   LINE      CODE     ---       #17
      01000B92H   LINE      CODE     ---       #18
      ---         BLOCKEND  ---      ---       LVL=0

      010003FDH   BLOCK     CODE     ---       LVL=0
      010003FDH   LINE      CODE     ---       #29
      010003FDH   LINE      CODE     ---       #30
      010003FDH   LINE      CODE     ---       #31
      01000400H   LINE      CODE     ---       #32
      01000409H   LINE      CODE     ---       #33
      01000425H   LINE      CODE     ---       #34
      01000425H   LINE      CODE     ---       #35
      01000428H   LINE      CODE     ---       #36
      01000428H   LINE      CODE     ---       #37
      0100042BH   LINE      CODE     ---       #38
      01000445H   LINE      CODE     ---       #39
      01000445H   LINE      CODE     ---       #40
      01000448H   LINE      CODE     ---       #41
      01000448H   LINE      CODE     ---       #42
      0100044AH   LINE      CODE     ---       #44
      0100044AH   LINE      CODE     ---       #45
      0100044DH   LINE      CODE     ---       #46
      01000450H   LINE      CODE     ---       #47
      01000453H   LINE      CODE     ---       #48
      0100045CH   LINE      CODE     ---       #49
      0100045FH   LINE      CODE     ---       #50
      01000462H   LINE      CODE     ---       #51
      01000465H   LINE      CODE     ---       #52
      01000468H   LINE      CODE     ---       #53
      01000471H   LINE      CODE     ---       #54
      01000474H   LINE      CODE     ---       #55
      01000477H   LINE      CODE     ---       #56
      01000498H   LINE      CODE     ---       #57
      01000498H   LINE      CODE     ---       #58
      0100049BH   LINE      CODE     ---       #59
      0100049BH   LINE      CODE     ---       #60
      0100049DH   LINE      CODE     ---       #61
      010004BEH   LINE      CODE     ---       #62
      010004BEH   LINE      CODE     ---       #63
      010004C1H   LINE      CODE     ---       #64
      010004C4H   LINE      CODE     ---       #65
      010004C4H   LINE      CODE     ---       #66
      010004C4H   LINE      CODE     ---       #67
      ---         BLOCKEND  ---      ---       LVL=0

      ---         MODULE    ---      ---       LEDRGB
      01000713H   PUBLIC    CODE     ---       LED_Show
LX51 LINKER/LOCATER V4.66.100.0                                                       03/21/2024  10:21:55  PAGE 33


      01000B88H   PUBLIC    CODE     ---       LED_Close
      01000B81H   PUBLIC    CODE     ---       LED_RGB
      01000B7AH   PUBLIC    CODE     ---       LED_GB
      01000B73H   PUBLIC    CODE     ---       LED_RB
      01000B6CH   PUBLIC    CODE     ---       LED_RG
      01000B65H   PUBLIC    CODE     ---       LED_B
      01000B5EH   PUBLIC    CODE     ---       LED_G
      01000B57H   PUBLIC    CODE     ---       LED_R
      01000B50H   PUBLIC    CODE     ---       LED_Init
      00000080H   SFRSYM    DATA     BYTE      P0
      00000090H   SFRSYM    DATA     BYTE      P1
      000000A0H   SFRSYM    DATA     BYTE      P2
      000000B0H   SFRSYM    DATA     BYTE      P3
      000000B0H.4 SFRSYM    DATA     BIT       T0
      000000D0H.6 SFRSYM    DATA     BIT       AC
      000000B0H.5 SFRSYM    DATA     BIT       T1
      00000090H.0 SFRSYM    DATA     BIT       T2
      000000A8H.7 SFRSYM    DATA     BIT       EA
      000000A8H   SFRSYM    DATA     BYTE      IE
      000000C8H.6 SFRSYM    DATA     BIT       EXF2
      000000B0H.7 SFRSYM    DATA     BIT       RD
      000000A8H.4 SFRSYM    DATA     BIT       ES
      000000B8H   SFRSYM    DATA     BYTE      IP
      00000098H.0 SFRSYM    DATA     BIT       RI
      000000B0H.2 SFRSYM    DATA     BIT       INT0
      000000D0H.7 SFRSYM    DATA     BIT       CY
      00000098H.1 SFRSYM    DATA     BIT       TI
      000000B0H.3 SFRSYM    DATA     BIT       INT1
      000000CBH   SFRSYM    DATA     BYTE      RCAP2H
      000000B8H.4 SFRSYM    DATA     BIT       PS
      00000081H   SFRSYM    DATA     BYTE      SP
      00000090H.1 SFRSYM    DATA     BIT       T2EX
      000000D0H.2 SFRSYM    DATA     BIT       OV
      000000CAH   SFRSYM    DATA     BYTE      RCAP2L
      000000C8H.1 SFRSYM    DATA     BIT       C_T2
      000000B0H.6 SFRSYM    DATA     BIT       WR
      000000C8H.5 SFRSYM    DATA     BIT       RCLK
      000000C8H.4 SFRSYM    DATA     BIT       TCLK
      00000099H   SFRSYM    DATA     BYTE      SBUF
      00000087H   SFRSYM    DATA     BYTE      PCON
      00000098H   SFRSYM    DATA     BYTE      SCON
      00000089H   SFRSYM    DATA     BYTE      TMOD
      00000088H   SFRSYM    DATA     BYTE      TCON
      00000088H.1 SFRSYM    DATA     BIT       IE0
      00000088H.3 SFRSYM    DATA     BIT       IE1
      000000F0H   SFRSYM    DATA     BYTE      B
      00000090H.7 SFRSYM    DATA     BIT       ColorB
      000000C8H.0 SFRSYM    DATA     BIT       CP_RL2
      000000E0H   SFRSYM    DATA     BYTE      ACC
      00000090H.6 SFRSYM    DATA     BIT       ColorG
      000000A8H.1 SFRSYM    DATA     BIT       ET0
      000000A8H.3 SFRSYM    DATA     BIT       ET1
      00000088H.5 SFRSYM    DATA     BIT       TF0
      000000A8H.5 SFRSYM    DATA     BIT       ET2
      00000088H.7 SFRSYM    DATA     BIT       TF1
      000000C8H.7 SFRSYM    DATA     BIT       TF2
      00000098H.2 SFRSYM    DATA     BIT       RB8
      0000008CH   SFRSYM    DATA     BYTE      TH0
      000000A8H.0 SFRSYM    DATA     BIT       EX0
      00000088H.0 SFRSYM    DATA     BIT       IT0
      0000008DH   SFRSYM    DATA     BYTE      TH1
      00000098H.3 SFRSYM    DATA     BIT       TB8
      000000A8H.2 SFRSYM    DATA     BIT       EX1
      00000088H.2 SFRSYM    DATA     BIT       IT1
      000000CDH   SFRSYM    DATA     BYTE      TH2
LX51 LINKER/LOCATER V4.66.100.0                                                       03/21/2024  10:21:55  PAGE 34


      000000D0H.0 SFRSYM    DATA     BIT       P
      00000098H.7 SFRSYM    DATA     BIT       SM0
      0000008AH   SFRSYM    DATA     BYTE      TL0
      00000098H.6 SFRSYM    DATA     BIT       SM1
      0000008BH   SFRSYM    DATA     BYTE      TL1
      00000098H.5 SFRSYM    DATA     BIT       SM2
      000000CCH   SFRSYM    DATA     BYTE      TL2
      00000090H.5 SFRSYM    DATA     BIT       ColorR
      000000B8H.1 SFRSYM    DATA     BIT       PT0
      000000B8H.3 SFRSYM    DATA     BIT       PT1
      000000D0H.3 SFRSYM    DATA     BIT       RS0
      000000B8H.5 SFRSYM    DATA     BIT       PT2
      00000088H.4 SFRSYM    DATA     BIT       TR0
      000000D0H.4 SFRSYM    DATA     BIT       RS1
      00000088H.6 SFRSYM    DATA     BIT       TR1
      000000C8H.2 SFRSYM    DATA     BIT       TR2
      000000B8H.0 SFRSYM    DATA     BIT       PX0
      000000B8H.2 SFRSYM    DATA     BIT       PX1
      00000083H   SFRSYM    DATA     BYTE      DPH
      00000082H   SFRSYM    DATA     BYTE      DPL
      000000C8H.3 SFRSYM    DATA     BIT       EXEN2
      00000098H.4 SFRSYM    DATA     BIT       REN
      000000C8H   SFRSYM    DATA     BYTE      T2CON
      000000B0H.0 SFRSYM    DATA     BIT       RXD
      000000B0H.1 SFRSYM    DATA     BIT       TXD
      000000D0H.5 SFRSYM    DATA     BIT       F0
      000000D0H   SFRSYM    DATA     BYTE      PSW

      01000B50H   BLOCK     CODE     ---       LVL=0
      01000B50H   LINE      CODE     ---       #10
      01000B50H   LINE      CODE     ---       #11
      01000B50H   LINE      CODE     ---       #12
      01000B52H   LINE      CODE     ---       #13
      01000B54H   LINE      CODE     ---       #14
      01000B56H   LINE      CODE     ---       #15
      ---         BLOCKEND  ---      ---       LVL=0

      01000B57H   BLOCK     CODE     ---       LVL=0
      01000B57H   LINE      CODE     ---       #24
      01000B57H   LINE      CODE     ---       #25
      01000B57H   LINE      CODE     ---       #26
      01000B59H   LINE      CODE     ---       #27
      01000B5BH   LINE      CODE     ---       #28
      01000B5DH   LINE      CODE     ---       #29
      ---         BLOCKEND  ---      ---       LVL=0

      01000B5EH   BLOCK     CODE     ---       LVL=0
      01000B5EH   LINE      CODE     ---       #31
      01000B5EH   LINE      CODE     ---       #32
      01000B5EH   LINE      CODE     ---       #33
      01000B60H   LINE      CODE     ---       #34
      01000B62H   LINE      CODE     ---       #35
      01000B64H   LINE      CODE     ---       #36
      ---         BLOCKEND  ---      ---       LVL=0

      01000B65H   BLOCK     CODE     ---       LVL=0
      01000B65H   LINE      CODE     ---       #38
      01000B65H   LINE      CODE     ---       #39
      01000B65H   LINE      CODE     ---       #40
      01000B67H   LINE      CODE     ---       #41
      01000B69H   LINE      CODE     ---       #42
      01000B6BH   LINE      CODE     ---       #43
      ---         BLOCKEND  ---      ---       LVL=0

      01000B6CH   BLOCK     CODE     ---       LVL=0
LX51 LINKER/LOCATER V4.66.100.0                                                       03/21/2024  10:21:55  PAGE 35


      01000B6CH   LINE      CODE     ---       #45
      01000B6CH   LINE      CODE     ---       #46
      01000B6CH   LINE      CODE     ---       #47
      01000B6EH   LINE      CODE     ---       #48
      01000B70H   LINE      CODE     ---       #49
      01000B72H   LINE      CODE     ---       #50
      ---         BLOCKEND  ---      ---       LVL=0

      01000B73H   BLOCK     CODE     ---       LVL=0
      01000B73H   LINE      CODE     ---       #52
      01000B73H   LINE      CODE     ---       #53
      01000B73H   LINE      CODE     ---       #54
      01000B75H   LINE      CODE     ---       #55
      01000B77H   LINE      CODE     ---       #56
      01000B79H   LINE      CODE     ---       #57
      ---         BLOCKEND  ---      ---       LVL=0

      01000B7AH   BLOCK     CODE     ---       LVL=0
      01000B7AH   LINE      CODE     ---       #59
      01000B7AH   LINE      CODE     ---       #60
      01000B7AH   LINE      CODE     ---       #61
      01000B7CH   LINE      CODE     ---       #62
      01000B7EH   LINE      CODE     ---       #63
      01000B80H   LINE      CODE     ---       #64
      ---         BLOCKEND  ---      ---       LVL=0

      01000B81H   BLOCK     CODE     ---       LVL=0
      01000B81H   LINE      CODE     ---       #66
      01000B81H   LINE      CODE     ---       #67
      01000B81H   LINE      CODE     ---       #68
      01000B83H   LINE      CODE     ---       #69
      01000B85H   LINE      CODE     ---       #70
      01000B87H   LINE      CODE     ---       #71
      ---         BLOCKEND  ---      ---       LVL=0

      01000B88H   BLOCK     CODE     ---       LVL=0
      01000B88H   LINE      CODE     ---       #73
      01000B88H   LINE      CODE     ---       #74
      01000B88H   LINE      CODE     ---       #75
      01000B8AH   LINE      CODE     ---       #76
      01000B8CH   LINE      CODE     ---       #77
      01000B8EH   LINE      CODE     ---       #78
      ---         BLOCKEND  ---      ---       LVL=0

      01000713H   BLOCK     CODE     ---       LVL=0
      01000713H   LINE      CODE     ---       #80
      01000713H   LINE      CODE     ---       #81
      01000713H   LINE      CODE     ---       #82
      01000716H   LINE      CODE     ---       #83
      01000719H   LINE      CODE     ---       #84
      0100071CH   LINE      CODE     ---       #85
      0100071FH   LINE      CODE     ---       #86
      01000722H   LINE      CODE     ---       #87
      01000725H   LINE      CODE     ---       #88
      01000728H   LINE      CODE     ---       #89
      0100072BH   LINE      CODE     ---       #90
      0100072EH   LINE      CODE     ---       #91
      01000731H   LINE      CODE     ---       #92
      01000734H   LINE      CODE     ---       #93
      01000737H   LINE      CODE     ---       #94
      0100073AH   LINE      CODE     ---       #95
      0100073DH   LINE      CODE     ---       #96
      01000740H   LINE      CODE     ---       #97
      01000743H   LINE      CODE     ---       #98
      01000746H   LINE      CODE     ---       #99
LX51 LINKER/LOCATER V4.66.100.0                                                       03/21/2024  10:21:55  PAGE 36


      01000749H   LINE      CODE     ---       #100
      0100074CH   LINE      CODE     ---       #101
      0100074FH   LINE      CODE     ---       #102
      01000752H   LINE      CODE     ---       #103
      01000755H   LINE      CODE     ---       #104
      01000758H   LINE      CODE     ---       #105
      0100075BH   LINE      CODE     ---       #106
      0100075EH   LINE      CODE     ---       #107
      01000761H   LINE      CODE     ---       #108
      01000764H   LINE      CODE     ---       #109
      ---         BLOCKEND  ---      ---       LVL=0

      ---         MODULE    ---      ---       BUZZER
      010009F3H   PUBLIC    CODE     ---       Buzzer
      00000080H   SFRSYM    DATA     BYTE      P0
      00000090H   SFRSYM    DATA     BYTE      P1
      000000A0H   SFRSYM    DATA     BYTE      P2
      000000B0H   SFRSYM    DATA     BYTE      P3
      000000B0H.4 SFRSYM    DATA     BIT       T0
      000000D0H.6 SFRSYM    DATA     BIT       AC
      000000B0H.5 SFRSYM    DATA     BIT       T1
      00000090H.0 SFRSYM    DATA     BIT       T2
      000000A8H.7 SFRSYM    DATA     BIT       EA
      000000A8H   SFRSYM    DATA     BYTE      IE
      000000C8H.6 SFRSYM    DATA     BIT       EXF2
      000000B0H.7 SFRSYM    DATA     BIT       RD
      000000A8H.4 SFRSYM    DATA     BIT       ES
      000000B8H   SFRSYM    DATA     BYTE      IP
      00000098H.0 SFRSYM    DATA     BIT       RI
      000000B0H.2 SFRSYM    DATA     BIT       INT0
      000000D0H.7 SFRSYM    DATA     BIT       CY
      00000098H.1 SFRSYM    DATA     BIT       TI
      000000B0H.3 SFRSYM    DATA     BIT       INT1
      000000CBH   SFRSYM    DATA     BYTE      RCAP2H
      000000B8H.4 SFRSYM    DATA     BIT       PS
      00000081H   SFRSYM    DATA     BYTE      SP
      00000090H.1 SFRSYM    DATA     BIT       T2EX
      000000D0H.2 SFRSYM    DATA     BIT       OV
      000000CAH   SFRSYM    DATA     BYTE      RCAP2L
      000000C8H.1 SFRSYM    DATA     BIT       C_T2
      000000B0H.6 SFRSYM    DATA     BIT       WR
      000000C8H.5 SFRSYM    DATA     BIT       RCLK
      000000C8H.4 SFRSYM    DATA     BIT       TCLK
      00000099H   SFRSYM    DATA     BYTE      SBUF
      00000087H   SFRSYM    DATA     BYTE      PCON
      00000098H   SFRSYM    DATA     BYTE      SCON
      00000089H   SFRSYM    DATA     BYTE      TMOD
      00000088H   SFRSYM    DATA     BYTE      TCON
      00000088H.1 SFRSYM    DATA     BIT       IE0
      00000088H.3 SFRSYM    DATA     BIT       IE1
      000000F0H   SFRSYM    DATA     BYTE      B
      000000C8H.0 SFRSYM    DATA     BIT       CP_RL2
      000000E0H   SFRSYM    DATA     BYTE      ACC
      000000A8H.1 SFRSYM    DATA     BIT       ET0
      000000A8H.3 SFRSYM    DATA     BIT       ET1
      00000088H.5 SFRSYM    DATA     BIT       TF0
      000000A8H.5 SFRSYM    DATA     BIT       ET2
      00000088H.7 SFRSYM    DATA     BIT       TF1
      000000C8H.7 SFRSYM    DATA     BIT       TF2
      00000098H.2 SFRSYM    DATA     BIT       RB8
      0000008CH   SFRSYM    DATA     BYTE      TH0
      000000A8H.0 SFRSYM    DATA     BIT       EX0
      00000088H.0 SFRSYM    DATA     BIT       IT0
      0000008DH   SFRSYM    DATA     BYTE      TH1
      00000098H.3 SFRSYM    DATA     BIT       TB8
LX51 LINKER/LOCATER V4.66.100.0                                                       03/21/2024  10:21:55  PAGE 37


      000000A8H.2 SFRSYM    DATA     BIT       EX1
      00000088H.2 SFRSYM    DATA     BIT       IT1
      000000CDH   SFRSYM    DATA     BYTE      TH2
      000000D0H.0 SFRSYM    DATA     BIT       P
      00000098H.7 SFRSYM    DATA     BIT       SM0
      0000008AH   SFRSYM    DATA     BYTE      TL0
      00000098H.6 SFRSYM    DATA     BIT       SM1
      0000008BH   SFRSYM    DATA     BYTE      TL1
      00000098H.5 SFRSYM    DATA     BIT       SM2
      000000CCH   SFRSYM    DATA     BYTE      TL2
      000000B8H.1 SFRSYM    DATA     BIT       PT0
      000000B8H.3 SFRSYM    DATA     BIT       PT1
      000000D0H.3 SFRSYM    DATA     BIT       RS0
      000000B8H.5 SFRSYM    DATA     BIT       PT2
      00000088H.4 SFRSYM    DATA     BIT       TR0
      000000D0H.4 SFRSYM    DATA     BIT       RS1
      00000088H.6 SFRSYM    DATA     BIT       TR1
      000000C8H.2 SFRSYM    DATA     BIT       TR2
      000000B8H.0 SFRSYM    DATA     BIT       PX0
      000000B8H.2 SFRSYM    DATA     BIT       PX1
      00000083H   SFRSYM    DATA     BYTE      DPH
      00000082H   SFRSYM    DATA     BYTE      DPL
      000000C8H.3 SFRSYM    DATA     BIT       EXEN2
      00000098H.4 SFRSYM    DATA     BIT       REN
      000000C8H   SFRSYM    DATA     BYTE      T2CON
      000000B0H.0 SFRSYM    DATA     BIT       RXD
      000000B0H.1 SFRSYM    DATA     BIT       TXD
      00000090H.0 SFRSYM    DATA     BIT       Hummer
      000000D0H.5 SFRSYM    DATA     BIT       F0
      000000D0H   SFRSYM    DATA     BYTE      PSW

      010009F3H   BLOCK     CODE     ---       LVL=0
      010009F3H   BLOCK     CODE     NEAR LAB  LVL=1
      0200000CH   SYMBOL    XDATA    BYTE      i
      ---         BLOCKEND  ---      ---       LVL=1
      010009F3H   LINE      CODE     ---       #10
      010009F3H   LINE      CODE     ---       #11
      010009F3H   LINE      CODE     ---       #13
      010009F8H   LINE      CODE     ---       #14
      010009F8H   LINE      CODE     ---       #15
      010009FAH   LINE      CODE     ---       #16
      010009FDH   LINE      CODE     ---       #17
      010009FFH   LINE      CODE     ---       #18
      01000A02H   LINE      CODE     ---       #19
      01000A0EH   LINE      CODE     ---       #20
      ---         BLOCKEND  ---      ---       LVL=0

      ---         MODULE    ---      ---       SU03T
      02000022H   PUBLIC    XDATA    BYTE      mode
      02000021H   PUBLIC    XDATA    BYTE      remark
      010004C5H   PUBLIC    CODE     ---       SU03T
      01000767H   PUBLIC    CODE     ---       Mode_Selection
      01000ACDH   PUBLIC    CODE     ---       SU03T_Init
      00000080H   SFRSYM    DATA     BYTE      P0
      000000A0H.5 SFRSYM    DATA     BIT       Echo
      00000090H   SFRSYM    DATA     BYTE      P1
      000000A0H   SFRSYM    DATA     BYTE      P2
      000000B0H   SFRSYM    DATA     BYTE      P3
      000000B0H.4 SFRSYM    DATA     BIT       T0
      000000D0H.6 SFRSYM    DATA     BIT       AC
      000000B0H.5 SFRSYM    DATA     BIT       T1
      00000090H.0 SFRSYM    DATA     BIT       T2
      000000A8H.7 SFRSYM    DATA     BIT       EA
      000000A8H   SFRSYM    DATA     BYTE      IE
      000000A0H.1 SFRSYM    DATA     BIT       IIC_SDA
LX51 LINKER/LOCATER V4.66.100.0                                                       03/21/2024  10:21:55  PAGE 38


      000000C8H.6 SFRSYM    DATA     BIT       EXF2
      000000B0H.7 SFRSYM    DATA     BIT       RD
      000000A0H.4 SFRSYM    DATA     BIT       Trig
      000000A8H.4 SFRSYM    DATA     BIT       ES
      000000A0H.0 SFRSYM    DATA     BIT       IIC_SCL
      000000B8H   SFRSYM    DATA     BYTE      IP
      00000098H.0 SFRSYM    DATA     BIT       RI
      000000B0H.2 SFRSYM    DATA     BIT       INT0
      000000D0H.7 SFRSYM    DATA     BIT       CY
      00000098H.1 SFRSYM    DATA     BIT       TI
      000000B0H.3 SFRSYM    DATA     BIT       INT1
      000000CBH   SFRSYM    DATA     BYTE      RCAP2H
      000000B8H.4 SFRSYM    DATA     BIT       PS
      00000081H   SFRSYM    DATA     BYTE      SP
      000000B0H.3 SFRSYM    DATA     BIT       sg_90
      00000090H.1 SFRSYM    DATA     BIT       T2EX
      000000D0H.2 SFRSYM    DATA     BIT       OV
      000000CAH   SFRSYM    DATA     BYTE      RCAP2L
      00000090H.1 SFRSYM    DATA     BIT       A25
      00000090H.2 SFRSYM    DATA     BIT       A26
      000000C8H.1 SFRSYM    DATA     BIT       C_T2
      000000B0H.6 SFRSYM    DATA     BIT       WR
      00000090H.3 SFRSYM    DATA     BIT       A27
      000000C8H.5 SFRSYM    DATA     BIT       RCLK
      000000C8H.4 SFRSYM    DATA     BIT       TCLK
      00000099H   SFRSYM    DATA     BYTE      SBUF
      00000087H   SFRSYM    DATA     BYTE      PCON
      00000098H   SFRSYM    DATA     BYTE      SCON
      00000089H   SFRSYM    DATA     BYTE      TMOD
      00000088H   SFRSYM    DATA     BYTE      TCON
      00000088H.1 SFRSYM    DATA     BIT       IE0
      00000088H.3 SFRSYM    DATA     BIT       IE1
      0000008EH   SFRSYM    DATA     BYTE      AUXR
      000000F0H   SFRSYM    DATA     BYTE      B
      00000090H.7 SFRSYM    DATA     BIT       ColorB
      000000C8H.0 SFRSYM    DATA     BIT       CP_RL2
      000000E0H   SFRSYM    DATA     BYTE      ACC
      00000090H.6 SFRSYM    DATA     BIT       ColorG
      000000A8H.1 SFRSYM    DATA     BIT       ET0
      000000A8H.3 SFRSYM    DATA     BIT       ET1
      00000088H.5 SFRSYM    DATA     BIT       TF0
      000000A8H.5 SFRSYM    DATA     BIT       ET2
      00000088H.7 SFRSYM    DATA     BIT       TF1
      000000C8H.7 SFRSYM    DATA     BIT       TF2
      00000098H.2 SFRSYM    DATA     BIT       RB8
      0000008CH   SFRSYM    DATA     BYTE      TH0
      000000A8H.0 SFRSYM    DATA     BIT       EX0
      00000088H.0 SFRSYM    DATA     BIT       IT0
      0000008DH   SFRSYM    DATA     BYTE      TH1
      00000098H.3 SFRSYM    DATA     BIT       TB8
      000000A8H.2 SFRSYM    DATA     BIT       EX1
      00000088H.2 SFRSYM    DATA     BIT       IT1
      000000CDH   SFRSYM    DATA     BYTE      TH2
      000000D0H.0 SFRSYM    DATA     BIT       P
      00000098H.7 SFRSYM    DATA     BIT       SM0
      0000008AH   SFRSYM    DATA     BYTE      TL0
      00000098H.6 SFRSYM    DATA     BIT       SM1
      0000008BH   SFRSYM    DATA     BYTE      TL1
      00000098H.5 SFRSYM    DATA     BIT       SM2
      000000CCH   SFRSYM    DATA     BYTE      TL2
      00000080H.0 SFRSYM    DATA     BIT       A1_Right
      00000090H.5 SFRSYM    DATA     BIT       ColorR
      00000080H.1 SFRSYM    DATA     BIT       A2_Right
      000000B8H.1 SFRSYM    DATA     BIT       PT0
      000000B8H.3 SFRSYM    DATA     BIT       PT1
LX51 LINKER/LOCATER V4.66.100.0                                                       03/21/2024  10:21:55  PAGE 39


      000000D0H.3 SFRSYM    DATA     BIT       RS0
      000000B8H.5 SFRSYM    DATA     BIT       PT2
      00000088H.4 SFRSYM    DATA     BIT       TR0
      000000D0H.4 SFRSYM    DATA     BIT       RS1
      00000088H.6 SFRSYM    DATA     BIT       TR1
      000000B0H.4 SFRSYM    DATA     BIT       Follow_Right
      000000C8H.2 SFRSYM    DATA     BIT       TR2
      000000B8H.0 SFRSYM    DATA     BIT       PX0
      000000B0H.5 SFRSYM    DATA     BIT       Track_Right
      000000B8H.2 SFRSYM    DATA     BIT       PX1
      00000083H   SFRSYM    DATA     BYTE      DPH
      00000080H.3 SFRSYM    DATA     BIT       B1_Left
      00000082H   SFRSYM    DATA     BYTE      DPL
      00000080H.2 SFRSYM    DATA     BIT       B2_Left
      000000C8H.3 SFRSYM    DATA     BIT       EXEN2
      000000A0H.3 SFRSYM    DATA     BIT       Follow_Left
      000000A0H.2 SFRSYM    DATA     BIT       Track_Left
      00000098H.4 SFRSYM    DATA     BIT       REN
      000000C8H   SFRSYM    DATA     BYTE      T2CON
      000000B0H.0 SFRSYM    DATA     BIT       RXD
      000000B0H.1 SFRSYM    DATA     BIT       TXD
      00000090H.0 SFRSYM    DATA     BIT       Hummer
      00000090H.4 SFRSYM    DATA     BIT       B3
      000000D0H.5 SFRSYM    DATA     BIT       F0
      000000D0H   SFRSYM    DATA     BYTE      PSW

      01000ACDH   BLOCK     CODE     ---       LVL=0
      01000ACDH   LINE      CODE     ---       #14
      01000ACDH   LINE      CODE     ---       #15
      01000ACDH   LINE      CODE     ---       #16
      01000AD3H   LINE      CODE     ---       #17
      01000AD8H   LINE      CODE     ---       #18
      ---         BLOCKEND  ---      ---       LVL=0

      01000767H   BLOCK     CODE     ---       LVL=0
      01000767H   LINE      CODE     ---       #27
      01000767H   LINE      CODE     ---       #28
      01000767H   LINE      CODE     ---       #29
      01000773H   LINE      CODE     ---       #30
      01000773H   LINE      CODE     ---       #31
      01000779H   LINE      CODE     ---       #32
      0100077AH   LINE      CODE     ---       #33
      01000786H   LINE      CODE     ---       #34
      01000786H   LINE      CODE     ---       #35
      0100078CH   LINE      CODE     ---       #36
      0100078DH   LINE      CODE     ---       #37
      01000799H   LINE      CODE     ---       #38
      01000799H   LINE      CODE     ---       #39
      0100079FH   LINE      CODE     ---       #40
      010007A0H   LINE      CODE     ---       #41
      010007ACH   LINE      CODE     ---       #42
      010007ACH   LINE      CODE     ---       #43
      010007B2H   LINE      CODE     ---       #44
      010007B3H   LINE      CODE     ---       #46
      010007B3H   LINE      CODE     ---       #47
      010007B8H   LINE      CODE     ---       #48
      010007B8H   LINE      CODE     ---       #49
      ---         BLOCKEND  ---      ---       LVL=0

      010004C5H   BLOCK     CODE     ---       LVL=0
      010004C5H   LINE      CODE     ---       #58
      010004C5H   LINE      CODE     ---       #59
      010004C5H   LINE      CODE     ---       #60
      010004C8H   LINE      CODE     ---       #61
      010004DDH   LINE      CODE     ---       #62
LX51 LINKER/LOCATER V4.66.100.0                                                       03/21/2024  10:21:55  PAGE 40


      010004DDH   LINE      CODE     ---       #63
      010004DDH   LINE      CODE     ---       #64
      010004E5H   LINE      CODE     ---       #65
      010004E5H   LINE      CODE     ---       #66
      010004E8H   LINE      CODE     ---       #67
      010004F5H   LINE      CODE     ---       #68
      010004F5H   LINE      CODE     ---       #69
      010004FBH   LINE      CODE     ---       #70
      010004FEH   LINE      CODE     ---       #71
      010004FEH   LINE      CODE     ---       #72
      010004FEH   LINE      CODE     ---       #73
      01000506H   LINE      CODE     ---       #74
      01000506H   LINE      CODE     ---       #75
      01000509H   LINE      CODE     ---       #76
      01000516H   LINE      CODE     ---       #77
      01000516H   LINE      CODE     ---       #78
      0100051CH   LINE      CODE     ---       #79
      0100051DH   LINE      CODE     ---       #80
      0100051DH   LINE      CODE     ---       #81
      01000525H   LINE      CODE     ---       #82
      01000525H   LINE      CODE     ---       #83
      01000528H   LINE      CODE     ---       #84
      01000535H   LINE      CODE     ---       #85
      01000535H   LINE      CODE     ---       #86
      0100053BH   LINE      CODE     ---       #87
      0100053EH   LINE      CODE     ---       #88
      0100053EH   LINE      CODE     ---       #89
      0100053EH   LINE      CODE     ---       #90
      01000546H   LINE      CODE     ---       #91
      01000546H   LINE      CODE     ---       #92
      01000549H   LINE      CODE     ---       #93
      01000556H   LINE      CODE     ---       #94
      01000556H   LINE      CODE     ---       #95
      0100055CH   LINE      CODE     ---       #96
      0100055FH   LINE      CODE     ---       #97
      0100055FH   LINE      CODE     ---       #98
      0100055FH   LINE      CODE     ---       #99
      ---         BLOCKEND  ---      ---       LVL=0

      ---         MODULE    ---      ---       UART
      01000651H   PUBLIC    CODE     ---       UART_Handle
      010009D5H   PUBLIC    CODE     ---       UART_Init
      00000080H   SFRSYM    DATA     BYTE      P0
      00000090H   SFRSYM    DATA     BYTE      P1
      000000A0H   SFRSYM    DATA     BYTE      P2
      000000B0H   SFRSYM    DATA     BYTE      P3
      000000B0H.4 SFRSYM    DATA     BIT       T0
      000000D0H.6 SFRSYM    DATA     BIT       AC
      000000B0H.5 SFRSYM    DATA     BIT       T1
      00000090H.0 SFRSYM    DATA     BIT       T2
      000000A8H.7 SFRSYM    DATA     BIT       EA
      000000A8H   SFRSYM    DATA     BYTE      IE
      000000C8H.6 SFRSYM    DATA     BIT       EXF2
      000000B0H.7 SFRSYM    DATA     BIT       RD
      000000A8H.4 SFRSYM    DATA     BIT       ES
      000000B8H   SFRSYM    DATA     BYTE      IP
      00000098H.0 SFRSYM    DATA     BIT       RI
      000000B0H.2 SFRSYM    DATA     BIT       INT0
      000000D0H.7 SFRSYM    DATA     BIT       CY
      00000098H.1 SFRSYM    DATA     BIT       TI
      000000B0H.3 SFRSYM    DATA     BIT       INT1
      000000CBH   SFRSYM    DATA     BYTE      RCAP2H
      000000B8H.4 SFRSYM    DATA     BIT       PS
      00000081H   SFRSYM    DATA     BYTE      SP
      00000090H.1 SFRSYM    DATA     BIT       T2EX
LX51 LINKER/LOCATER V4.66.100.0                                                       03/21/2024  10:21:55  PAGE 41


      000000D0H.2 SFRSYM    DATA     BIT       OV
      000000CAH   SFRSYM    DATA     BYTE      RCAP2L
      000000C8H.1 SFRSYM    DATA     BIT       C_T2
      000000B0H.6 SFRSYM    DATA     BIT       WR
      000000C8H.5 SFRSYM    DATA     BIT       RCLK
      000000C8H.4 SFRSYM    DATA     BIT       TCLK
      00000099H   SFRSYM    DATA     BYTE      SBUF
      00000087H   SFRSYM    DATA     BYTE      PCON
      00000098H   SFRSYM    DATA     BYTE      SCON
      00000089H   SFRSYM    DATA     BYTE      TMOD
      00000088H   SFRSYM    DATA     BYTE      TCON
      00000088H.1 SFRSYM    DATA     BIT       IE0
      00000088H.3 SFRSYM    DATA     BIT       IE1
      0000008EH   SFRSYM    DATA     BYTE      AUXR
      000000F0H   SFRSYM    DATA     BYTE      B
      000000C8H.0 SFRSYM    DATA     BIT       CP_RL2
      000000E0H   SFRSYM    DATA     BYTE      ACC
      000000A8H.1 SFRSYM    DATA     BIT       ET0
      000000A8H.3 SFRSYM    DATA     BIT       ET1
      00000088H.5 SFRSYM    DATA     BIT       TF0
      000000A8H.5 SFRSYM    DATA     BIT       ET2
      00000088H.7 SFRSYM    DATA     BIT       TF1
      000000C8H.7 SFRSYM    DATA     BIT       TF2
      00000098H.2 SFRSYM    DATA     BIT       RB8
      0000008CH   SFRSYM    DATA     BYTE      TH0
      000000A8H.0 SFRSYM    DATA     BIT       EX0
      00000088H.0 SFRSYM    DATA     BIT       IT0
      0000008DH   SFRSYM    DATA     BYTE      TH1
      00000098H.3 SFRSYM    DATA     BIT       TB8
      000000A8H.2 SFRSYM    DATA     BIT       EX1
      00000088H.2 SFRSYM    DATA     BIT       IT1
      000000CDH   SFRSYM    DATA     BYTE      TH2
      000000D0H.0 SFRSYM    DATA     BIT       P
      00000098H.7 SFRSYM    DATA     BIT       SM0
      0000008AH   SFRSYM    DATA     BYTE      TL0
      00000098H.6 SFRSYM    DATA     BIT       SM1
      0000008BH   SFRSYM    DATA     BYTE      TL1
      00000098H.5 SFRSYM    DATA     BIT       SM2
      000000CCH   SFRSYM    DATA     BYTE      TL2
      00000080H.0 SFRSYM    DATA     BIT       A1_Right
      00000080H.1 SFRSYM    DATA     BIT       A2_Right
      000000B8H.1 SFRSYM    DATA     BIT       PT0
      000000B8H.3 SFRSYM    DATA     BIT       PT1
      000000D0H.3 SFRSYM    DATA     BIT       RS0
      000000B8H.5 SFRSYM    DATA     BIT       PT2
      00000088H.4 SFRSYM    DATA     BIT       TR0
      000000D0H.4 SFRSYM    DATA     BIT       RS1
      00000088H.6 SFRSYM    DATA     BIT       TR1
      000000C8H.2 SFRSYM    DATA     BIT       TR2
      000000B8H.0 SFRSYM    DATA     BIT       PX0
      000000B8H.2 SFRSYM    DATA     BIT       PX1
      00000083H   SFRSYM    DATA     BYTE      DPH
      00000080H.3 SFRSYM    DATA     BIT       B1_Left
      00000082H   SFRSYM    DATA     BYTE      DPL
      00000080H.2 SFRSYM    DATA     BIT       B2_Left
      000000C8H.3 SFRSYM    DATA     BIT       EXEN2
      00000098H.4 SFRSYM    DATA     BIT       REN
      000000C8H   SFRSYM    DATA     BYTE      T2CON
      000000B0H.0 SFRSYM    DATA     BIT       RXD
      000000B0H.1 SFRSYM    DATA     BIT       TXD
      000000D0H.5 SFRSYM    DATA     BIT       F0
      000000D0H   SFRSYM    DATA     BYTE      PSW

      010009D5H   BLOCK     CODE     ---       LVL=0
      010009D5H   LINE      CODE     ---       #10
LX51 LINKER/LOCATER V4.66.100.0                                                       03/21/2024  10:21:55  PAGE 42


      010009D5H   LINE      CODE     ---       #11
      010009D5H   LINE      CODE     ---       #12
      010009D8H   LINE      CODE     ---       #13
      010009DBH   LINE      CODE     ---       #14
      010009DEH   LINE      CODE     ---       #15
      010009E1H   LINE      CODE     ---       #16
      010009E4H   LINE      CODE     ---       #17
      010009E7H   LINE      CODE     ---       #18
      010009EAH   LINE      CODE     ---       #19
      010009ECH   LINE      CODE     ---       #20
      010009EEH   LINE      CODE     ---       #21
      010009F0H   LINE      CODE     ---       #22
      010009F2H   LINE      CODE     ---       #23
      ---         BLOCKEND  ---      ---       LVL=0
      00000007H   SYMBOL    DATA     BYTE      byte
      00000001H   SYMBOL    DATA     ---       str

      01000651H   BLOCK     CODE     ---       LVL=0
      0100066EH   BLOCK     CODE     NEAR LAB  LVL=1
      00000007H   SYMBOL    DATA     BYTE      tmp
      ---         BLOCKEND  ---      ---       LVL=1
      01000651H   LINE      CODE     ---       #62
      0100066EH   LINE      CODE     ---       #65
      01000671H   LINE      CODE     ---       #66
      01000671H   LINE      CODE     ---       #67
      01000673H   LINE      CODE     ---       #68
      01000675H   LINE      CODE     ---       #69
      01000684H   LINE      CODE     ---       #70
      01000684H   LINE      CODE     ---       #71
      01000684H   LINE      CODE     ---       #72
      01000687H   LINE      CODE     ---       #73
      01000687H   LINE      CODE     ---       #74
      01000689H   LINE      CODE     ---       #75
      01000689H   LINE      CODE     ---       #76
      0100068CH   LINE      CODE     ---       #77
      0100068CH   LINE      CODE     ---       #78
      0100068EH   LINE      CODE     ---       #79
      0100068EH   LINE      CODE     ---       #80
      01000691H   LINE      CODE     ---       #81
      01000691H   LINE      CODE     ---       #82
      01000693H   LINE      CODE     ---       #83
      01000693H   LINE      CODE     ---       #84
      01000696H   LINE      CODE     ---       #85
      01000699H   LINE      CODE     ---       #86
      01000699H   LINE      CODE     ---       #87
      01000699H   LINE      CODE     ---       #88
      01000699H   LINE      CODE     ---       #89
      ---         BLOCKEND  ---      ---       LVL=0

      ---         MODULE    ---      ---       DELAY
      01000AB3H   PUBLIC    CODE     ---       Delay1000ms
      01000AA5H   PUBLIC    CODE     ---       Delay300ms
      01000B38H   PUBLIC    CODE     ---       Delay100ms
      01000B2FH   PUBLIC    CODE     ---       Delay40ms
      01000B26H   PUBLIC    CODE     ---       Delay10ms
      01000B95H   PUBLIC    CODE     ---       Delay10us

      01000B95H   BLOCK     CODE     ---       LVL=0
      01000B95H   BLOCK     CODE     NEAR LAB  LVL=1
      00000007H   SYMBOL    DATA     BYTE      i
      ---         BLOCKEND  ---      ---       LVL=1
      01000B95H   LINE      CODE     ---       #10
      01000B95H   LINE      CODE     ---       #11
      01000B95H   LINE      CODE     ---       #13
      01000B97H   LINE      CODE     ---       #14
LX51 LINKER/LOCATER V4.66.100.0                                                       03/21/2024  10:21:55  PAGE 43


      01000B99H   LINE      CODE     ---       #15
      ---         BLOCKEND  ---      ---       LVL=0

      01000B26H   BLOCK     CODE     ---       LVL=0
      01000B26H   BLOCK     CODE     NEAR LAB  LVL=1
      00000007H   SYMBOL    DATA     BYTE      i
      00000006H   SYMBOL    DATA     BYTE      j
      ---         BLOCKEND  ---      ---       LVL=1
      01000B26H   LINE      CODE     ---       #17
      01000B26H   LINE      CODE     ---       #18
      01000B26H   LINE      CODE     ---       #20
      01000B28H   LINE      CODE     ---       #21
      01000B2AH   LINE      CODE     ---       #23
      01000B2AH   LINE      CODE     ---       #24
      01000B2CH   LINE      CODE     ---       #25
      01000B2EH   LINE      CODE     ---       #26
      ---         BLOCKEND  ---      ---       LVL=0

      01000B2FH   BLOCK     CODE     ---       LVL=0
      01000B2FH   BLOCK     CODE     NEAR LAB  LVL=1
      00000007H   SYMBOL    DATA     BYTE      i
      00000006H   SYMBOL    DATA     BYTE      j
      ---         BLOCKEND  ---      ---       LVL=1
      01000B2FH   LINE      CODE     ---       #28
      01000B2FH   LINE      CODE     ---       #29
      01000B2FH   LINE      CODE     ---       #31
      01000B31H   LINE      CODE     ---       #32
      01000B33H   LINE      CODE     ---       #34
      01000B33H   LINE      CODE     ---       #35
      01000B35H   LINE      CODE     ---       #36
      01000B37H   LINE      CODE     ---       #37
      ---         BLOCKEND  ---      ---       LVL=0

      01000B38H   BLOCK     CODE     ---       LVL=0
      01000B38H   BLOCK     CODE     NEAR LAB  LVL=1
      00000007H   SYMBOL    DATA     BYTE      i
      00000006H   SYMBOL    DATA     BYTE      j
      ---         BLOCKEND  ---      ---       LVL=1
      01000B38H   LINE      CODE     ---       #39
      01000B38H   LINE      CODE     ---       #40
      01000B38H   LINE      CODE     ---       #43
      01000B3AH   LINE      CODE     ---       #44
      01000B3CH   LINE      CODE     ---       #46
      01000B3CH   LINE      CODE     ---       #47
      01000B3EH   LINE      CODE     ---       #48
      01000B40H   LINE      CODE     ---       #49
      ---         BLOCKEND  ---      ---       LVL=0

      01000AA5H   BLOCK     CODE     ---       LVL=0
      01000AA5H   BLOCK     CODE     NEAR LAB  LVL=1
      00000007H   SYMBOL    DATA     BYTE      i
      00000006H   SYMBOL    DATA     BYTE      j
      00000005H   SYMBOL    DATA     BYTE      k
      ---         BLOCKEND  ---      ---       LVL=1
      01000AA5H   LINE      CODE     ---       #51
      01000AA5H   LINE      CODE     ---       #52
      01000AA5H   LINE      CODE     ---       #54
      01000AA6H   LINE      CODE     ---       #55
      01000AA8H   LINE      CODE     ---       #56
      01000AAAH   LINE      CODE     ---       #57
      01000AACH   LINE      CODE     ---       #59
      01000AACH   LINE      CODE     ---       #61
      01000AACH   LINE      CODE     ---       #62
      01000AAEH   LINE      CODE     ---       #63
      01000AB0H   LINE      CODE     ---       #64
LX51 LINKER/LOCATER V4.66.100.0                                                       03/21/2024  10:21:55  PAGE 44


      01000AB2H   LINE      CODE     ---       #65
      ---         BLOCKEND  ---      ---       LVL=0

      01000AB3H   BLOCK     CODE     ---       LVL=0
      01000AB3H   BLOCK     CODE     NEAR LAB  LVL=1
      00000007H   SYMBOL    DATA     BYTE      i
      00000006H   SYMBOL    DATA     BYTE      j
      00000005H   SYMBOL    DATA     BYTE      k
      ---         BLOCKEND  ---      ---       LVL=1
      01000AB3H   LINE      CODE     ---       #67
      01000AB3H   LINE      CODE     ---       #68
      01000AB3H   LINE      CODE     ---       #70
      01000AB4H   LINE      CODE     ---       #71
      01000AB6H   LINE      CODE     ---       #72
      01000AB8H   LINE      CODE     ---       #73
      01000ABAH   LINE      CODE     ---       #75
      01000ABAH   LINE      CODE     ---       #77
      01000ABAH   LINE      CODE     ---       #78
      01000ABCH   LINE      CODE     ---       #79
      01000ABEH   LINE      CODE     ---       #80
      01000AC0H   LINE      CODE     ---       #81
      ---         BLOCKEND  ---      ---       LVL=0

      ---         MODULE    ---      ---       ?C?FPMUL
      01000026H   PUBLIC    CODE     ---       ?C?FPMUL

      ---         MODULE    ---      ---       ?C?FPCMP
      0100012EH   PUBLIC    CODE     ---       ?C?FPCMP
      0100012CH   PUBLIC    CODE     ---       ?C?FPCMP3

      ---         MODULE    ---      ---       ?C?FCAST
      010001AFH   PUBLIC    CODE     ---       ?C?FCASTC
      010001AAH   PUBLIC    CODE     ---       ?C?FCASTI
      010001A5H   PUBLIC    CODE     ---       ?C?FCASTL

      ---         MODULE    ---      ---       ?C?CASTF
      010001E3H   PUBLIC    CODE     ---       ?C?CASTF

      ---         MODULE    ---      ---       ?C?FPGETOPN
      0100021AH   PUBLIC    CODE     ---       ?C?FPGETOPN2
      0100024FH   PUBLIC    CODE     ---       ?C?FPNANRESULT
      01000259H   PUBLIC    CODE     ---       ?C?FPOVERFLOW
      01000231H   PUBLIC    CODE     ---       ?C?FPRESULT
      01000245H   PUBLIC    CODE     ---       ?C?FPRESULT2
      01000256H   PUBLIC    CODE     ---       ?C?FPUNDERFLOW

      ---         MODULE    ---      ---       ?C?CLDPTR
      01000264H   PUBLIC    CODE     ---       ?C?CLDPTR

      ---         MODULE    ---      ---       ?C?IILDX
      0100027DH   PUBLIC    CODE     ---       ?C?IILDX

      ---         MODULE    ---      ---       ?C?LNEG
      01000293H   PUBLIC    CODE     ---       ?C?LNEG

      ---         MODULE    ---      ---       ?C?LSTXDATA
      010002A1H   PUBLIC    CODE     ---       ?C?LSTXDATA

      ---         MODULE    ---      ---       ?C?LSTKXDATA
      010002ADH   PUBLIC    CODE     ---       ?C?LSTKXDATA

Program Size: data=9.0 xdata=35 const=1859 code=2973
LX51 RUN COMPLETE.  0 WARNING(S),  0 ERROR(S)
